ARM GAS  /var/folders/gy/djtlh36967g6qz60tx0ltrsw0000gn/T//ccFocqOw.s 			page 1


   1              		.cpu cortex-m7
   2              		.eabi_attribute 28, 1
   3              		.eabi_attribute 20, 1
   4              		.eabi_attribute 21, 1
   5              		.eabi_attribute 23, 3
   6              		.eabi_attribute 24, 1
   7              		.eabi_attribute 25, 1
   8              		.eabi_attribute 26, 1
   9              		.eabi_attribute 30, 1
  10              		.eabi_attribute 34, 1
  11              		.eabi_attribute 18, 4
  12              		.file	"SPI_TFT_ILI9341.c"
  13              		.text
  14              	.Ltext0:
  15              		.cfi_sections	.debug_frame
  16              		.section	.text.wr_cmd,"ax",%progbits
  17              		.align	1
  18              		.arch armv7e-m
  19              		.syntax unified
  20              		.thumb
  21              		.thumb_func
  22              		.fpu fpv5-d16
  24              	wr_cmd:
  25              	.LVL0:
  26              	.LFB6:
  27              		.file 1 "Core/Src/SPI_TFT_ILI9341.c"
   1:Core/Src/SPI_TFT_ILI9341.c **** 
   2:Core/Src/SPI_TFT_ILI9341.c **** #include "SPI_TFT_ILI9341.h"
   3:Core/Src/SPI_TFT_ILI9341.c **** 
   4:Core/Src/SPI_TFT_ILI9341.c **** #define BPP             16                  // Bits per pixel    
   5:Core/Src/SPI_TFT_ILI9341.c **** #define INBUF_SIZ       320*2               // Don't be smaller than 320*2
   6:Core/Src/SPI_TFT_ILI9341.c **** #define PRINTFBUF_SIZ   128                 // Buffer size used in SPI_TFT_ILI9341_printf()
   7:Core/Src/SPI_TFT_ILI9341.c **** 
   8:Core/Src/SPI_TFT_ILI9341.c **** 
   9:Core/Src/SPI_TFT_ILI9341.c **** // ********** Private functions prototype ***************************************************
  10:Core/Src/SPI_TFT_ILI9341.c **** 
  11:Core/Src/SPI_TFT_ILI9341.c **** /** Set draw window region to whole screen
  12:Core/Src/SPI_TFT_ILI9341.c ****  *
  13:Core/Src/SPI_TFT_ILI9341.c ****  */  
  14:Core/Src/SPI_TFT_ILI9341.c **** static void WindowMax(SPI_TFT_ILI9341_DriverStruct *handle);
  15:Core/Src/SPI_TFT_ILI9341.c **** 
  16:Core/Src/SPI_TFT_ILI9341.c ****   
  17:Core/Src/SPI_TFT_ILI9341.c **** /** draw a horizontal line
  18:Core/Src/SPI_TFT_ILI9341.c ****  *
  19:Core/Src/SPI_TFT_ILI9341.c ****  * @param x0 horizontal start
  20:Core/Src/SPI_TFT_ILI9341.c ****  * @param x1 horizontal stop
  21:Core/Src/SPI_TFT_ILI9341.c ****  * @param y vertical position
  22:Core/Src/SPI_TFT_ILI9341.c ****  * @param color 16 bit color                                               
  23:Core/Src/SPI_TFT_ILI9341.c ****  *
  24:Core/Src/SPI_TFT_ILI9341.c ****  */
  25:Core/Src/SPI_TFT_ILI9341.c **** static void hline(SPI_TFT_ILI9341_DriverStruct *handle, int x0, int x1, int y, int colour);
  26:Core/Src/SPI_TFT_ILI9341.c **** 
  27:Core/Src/SPI_TFT_ILI9341.c **** 
  28:Core/Src/SPI_TFT_ILI9341.c **** /** draw a vertical line
  29:Core/Src/SPI_TFT_ILI9341.c ****  *
  30:Core/Src/SPI_TFT_ILI9341.c ****  * @param x horizontal position
  31:Core/Src/SPI_TFT_ILI9341.c ****  * @param y0 vertical start 
ARM GAS  /var/folders/gy/djtlh36967g6qz60tx0ltrsw0000gn/T//ccFocqOw.s 			page 2


  32:Core/Src/SPI_TFT_ILI9341.c ****  * @param y1 vertical stop
  33:Core/Src/SPI_TFT_ILI9341.c ****  * @param color 16 bit color
  34:Core/Src/SPI_TFT_ILI9341.c ****  */
  35:Core/Src/SPI_TFT_ILI9341.c **** static void vline(SPI_TFT_ILI9341_DriverStruct *handle, int x, int y0, int y1, int colour);
  36:Core/Src/SPI_TFT_ILI9341.c **** 
  37:Core/Src/SPI_TFT_ILI9341.c ****  
  38:Core/Src/SPI_TFT_ILI9341.c **** /** Set draw window region
  39:Core/Src/SPI_TFT_ILI9341.c ****  *
  40:Core/Src/SPI_TFT_ILI9341.c ****  * @param x horizontal position
  41:Core/Src/SPI_TFT_ILI9341.c ****  * @param y vertical position
  42:Core/Src/SPI_TFT_ILI9341.c ****  * @param w window width in pixel
  43:Core/Src/SPI_TFT_ILI9341.c ****  * @param h window height in pixels
  44:Core/Src/SPI_TFT_ILI9341.c ****  */    
  45:Core/Src/SPI_TFT_ILI9341.c **** static void window(SPI_TFT_ILI9341_DriverStruct *handle, unsigned int x,unsigned int y, unsigned in
  46:Core/Src/SPI_TFT_ILI9341.c **** 
  47:Core/Src/SPI_TFT_ILI9341.c ****  
  48:Core/Src/SPI_TFT_ILI9341.c **** /** Init the ILI9341 controller 
  49:Core/Src/SPI_TFT_ILI9341.c ****  *
  50:Core/Src/SPI_TFT_ILI9341.c ****  */    
  51:Core/Src/SPI_TFT_ILI9341.c **** static void tft_reset(SPI_TFT_ILI9341_DriverStruct *handle);
  52:Core/Src/SPI_TFT_ILI9341.c ****  
  53:Core/Src/SPI_TFT_ILI9341.c **** 
  54:Core/Src/SPI_TFT_ILI9341.c **** /** Write data to the LCD controller
  55:Core/Src/SPI_TFT_ILI9341.c ****  *
  56:Core/Src/SPI_TFT_ILI9341.c ****  * @param dat data written to LCD controller
  57:Core/Src/SPI_TFT_ILI9341.c ****  * 
  58:Core/Src/SPI_TFT_ILI9341.c ****  */   
  59:Core/Src/SPI_TFT_ILI9341.c **** static void wr_dat(SPI_TFT_ILI9341_DriverStruct *handle, unsigned char value);
  60:Core/Src/SPI_TFT_ILI9341.c **** 
  61:Core/Src/SPI_TFT_ILI9341.c **** 
  62:Core/Src/SPI_TFT_ILI9341.c **** /** Write a command the LCD controller 
  63:Core/Src/SPI_TFT_ILI9341.c ****  *
  64:Core/Src/SPI_TFT_ILI9341.c ****  * @param cmd: command to be written   
  65:Core/Src/SPI_TFT_ILI9341.c ****  *
  66:Core/Src/SPI_TFT_ILI9341.c ****  */   
  67:Core/Src/SPI_TFT_ILI9341.c **** static void wr_cmd(SPI_TFT_ILI9341_DriverStruct *handle, unsigned char value);
  68:Core/Src/SPI_TFT_ILI9341.c **** 
  69:Core/Src/SPI_TFT_ILI9341.c ****     
  70:Core/Src/SPI_TFT_ILI9341.c **** /** Read byte from the LCD controller
  71:Core/Src/SPI_TFT_ILI9341.c ****  *
  72:Core/Src/SPI_TFT_ILI9341.c ****  * @param cmd comand to controller
  73:Core/Src/SPI_TFT_ILI9341.c ****  * @returns data from LCD controller
  74:Core/Src/SPI_TFT_ILI9341.c ****  *  
  75:Core/Src/SPI_TFT_ILI9341.c ****  */    
  76:Core/Src/SPI_TFT_ILI9341.c **** static char rd_byte(SPI_TFT_ILI9341_DriverStruct *handle, unsigned char cmd);
  77:Core/Src/SPI_TFT_ILI9341.c **** 
  78:Core/Src/SPI_TFT_ILI9341.c **** 
  79:Core/Src/SPI_TFT_ILI9341.c **** /** Read 32 bits from the LCD controller
  80:Core/Src/SPI_TFT_ILI9341.c ****  *
  81:Core/Src/SPI_TFT_ILI9341.c ****  * @param cmd comand to controller
  82:Core/Src/SPI_TFT_ILI9341.c ****  * @returns data from LCD controller
  83:Core/Src/SPI_TFT_ILI9341.c ****  *  
  84:Core/Src/SPI_TFT_ILI9341.c ****  */
  85:Core/Src/SPI_TFT_ILI9341.c **** static int rd_32(SPI_TFT_ILI9341_DriverStruct *handle, unsigned char cmd);  
  86:Core/Src/SPI_TFT_ILI9341.c ****     
  87:Core/Src/SPI_TFT_ILI9341.c ****     
  88:Core/Src/SPI_TFT_ILI9341.c **** /** Write a value to the to a LCD register
ARM GAS  /var/folders/gy/djtlh36967g6qz60tx0ltrsw0000gn/T//ccFocqOw.s 			page 3


  89:Core/Src/SPI_TFT_ILI9341.c ****  *
  90:Core/Src/SPI_TFT_ILI9341.c ****  * @param reg register to be written
  91:Core/Src/SPI_TFT_ILI9341.c ****  * @param val data to be written
  92:Core/Src/SPI_TFT_ILI9341.c ****  */   
  93:Core/Src/SPI_TFT_ILI9341.c **** //static void wr_reg(SPI_TFT_ILI9341_DriverStruct *handle, unsigned char reg, unsigned char val);
  94:Core/Src/SPI_TFT_ILI9341.c ****     
  95:Core/Src/SPI_TFT_ILI9341.c ****     
  96:Core/Src/SPI_TFT_ILI9341.c **** // ********** Private functions prototype ************************************(END)**********
  97:Core/Src/SPI_TFT_ILI9341.c **** 
  98:Core/Src/SPI_TFT_ILI9341.c **** 
  99:Core/Src/SPI_TFT_ILI9341.c **** 
 100:Core/Src/SPI_TFT_ILI9341.c **** 
 101:Core/Src/SPI_TFT_ILI9341.c **** 
 102:Core/Src/SPI_TFT_ILI9341.c **** 
 103:Core/Src/SPI_TFT_ILI9341.c **** static uint8_t _buf[INBUF_SIZ];
 104:Core/Src/SPI_TFT_ILI9341.c **** static int _bufi;
 105:Core/Src/SPI_TFT_ILI9341.c **** #define INIBUF() _bufi = 0
 106:Core/Src/SPI_TFT_ILI9341.c **** #define WBUF(x) _buf[_bufi++] = (x)
 107:Core/Src/SPI_TFT_ILI9341.c **** 
 108:Core/Src/SPI_TFT_ILI9341.c **** 
 109:Core/Src/SPI_TFT_ILI9341.c **** 
 110:Core/Src/SPI_TFT_ILI9341.c **** void SPI_TFT_ILI9341(
 111:Core/Src/SPI_TFT_ILI9341.c ****           SPI_TFT_ILI9341_DriverStruct *handle,
 112:Core/Src/SPI_TFT_ILI9341.c ****           SPI_TFT_ILI9341_SPITransmit_Callback spi,
 113:Core/Src/SPI_TFT_ILI9341.c ****           SPI_TFT_ILI9341_DigitalOut_Callback cs,
 114:Core/Src/SPI_TFT_ILI9341.c ****           SPI_TFT_ILI9341_DigitalOut_Callback reset,
 115:Core/Src/SPI_TFT_ILI9341.c ****           SPI_TFT_ILI9341_DigitalOut_Callback dc,
 116:Core/Src/SPI_TFT_ILI9341.c ****           SPI_TFT_ILI9341_WaitMilliseconds_Callback waitms)
 117:Core/Src/SPI_TFT_ILI9341.c **** {
 118:Core/Src/SPI_TFT_ILI9341.c ****     handle->_spi = spi;
 119:Core/Src/SPI_TFT_ILI9341.c ****     handle->_cs = cs;
 120:Core/Src/SPI_TFT_ILI9341.c ****     handle->_reset = reset;
 121:Core/Src/SPI_TFT_ILI9341.c ****     handle->_dc = dc;
 122:Core/Src/SPI_TFT_ILI9341.c ****     handle->_waitms = waitms;
 123:Core/Src/SPI_TFT_ILI9341.c ****     handle->orientation = 0;
 124:Core/Src/SPI_TFT_ILI9341.c ****     handle->char_x = 0;
 125:Core/Src/SPI_TFT_ILI9341.c ****     //handle->_spi->format(8,3);                  // 8 bit spi mode 3
 126:Core/Src/SPI_TFT_ILI9341.c ****     //handle->_spi->frequency(30000000);          // 30 Mhz SPI clock 30000000
 127:Core/Src/SPI_TFT_ILI9341.c ****     tft_reset(handle);
 128:Core/Src/SPI_TFT_ILI9341.c **** }
 129:Core/Src/SPI_TFT_ILI9341.c **** 
 130:Core/Src/SPI_TFT_ILI9341.c **** void SPI_TFT_ILI9341_set_foreground(SPI_TFT_ILI9341_DriverStruct *handle, uint16_t colour) {
 131:Core/Src/SPI_TFT_ILI9341.c ****     handle->_foreground = colour;
 132:Core/Src/SPI_TFT_ILI9341.c **** }
 133:Core/Src/SPI_TFT_ILI9341.c **** 
 134:Core/Src/SPI_TFT_ILI9341.c **** void SPI_TFT_ILI9341_set_background(SPI_TFT_ILI9341_DriverStruct *handle, uint16_t colour) {
 135:Core/Src/SPI_TFT_ILI9341.c ****     handle->_background = colour;
 136:Core/Src/SPI_TFT_ILI9341.c **** }
 137:Core/Src/SPI_TFT_ILI9341.c **** 
 138:Core/Src/SPI_TFT_ILI9341.c **** int SPI_TFT_ILI9341_width(SPI_TFT_ILI9341_DriverStruct *handle)
 139:Core/Src/SPI_TFT_ILI9341.c **** {
 140:Core/Src/SPI_TFT_ILI9341.c ****     if (handle->orientation == 0 || handle->orientation == 2) return 240;
 141:Core/Src/SPI_TFT_ILI9341.c ****     else return 320;
 142:Core/Src/SPI_TFT_ILI9341.c **** }
 143:Core/Src/SPI_TFT_ILI9341.c **** 
 144:Core/Src/SPI_TFT_ILI9341.c **** 
 145:Core/Src/SPI_TFT_ILI9341.c **** int SPI_TFT_ILI9341_height(SPI_TFT_ILI9341_DriverStruct *handle)
ARM GAS  /var/folders/gy/djtlh36967g6qz60tx0ltrsw0000gn/T//ccFocqOw.s 			page 4


 146:Core/Src/SPI_TFT_ILI9341.c **** {
 147:Core/Src/SPI_TFT_ILI9341.c ****     if (handle->orientation == 0 || handle->orientation == 2) return 320;
 148:Core/Src/SPI_TFT_ILI9341.c ****     else return 240;
 149:Core/Src/SPI_TFT_ILI9341.c **** }
 150:Core/Src/SPI_TFT_ILI9341.c **** 
 151:Core/Src/SPI_TFT_ILI9341.c **** 
 152:Core/Src/SPI_TFT_ILI9341.c **** void SPI_TFT_ILI9341_set_orientation(SPI_TFT_ILI9341_DriverStruct *handle, unsigned int o)
 153:Core/Src/SPI_TFT_ILI9341.c **** {
 154:Core/Src/SPI_TFT_ILI9341.c ****     handle->orientation = o;
 155:Core/Src/SPI_TFT_ILI9341.c ****     wr_cmd(handle, 0x36);                     // MEMORY_ACCESS_CONTROL
 156:Core/Src/SPI_TFT_ILI9341.c ****     switch (o) {
 157:Core/Src/SPI_TFT_ILI9341.c ****         case 0:
 158:Core/Src/SPI_TFT_ILI9341.c ****             _buf[0] = 0x48;
 159:Core/Src/SPI_TFT_ILI9341.c ****             break;
 160:Core/Src/SPI_TFT_ILI9341.c ****         case 1:
 161:Core/Src/SPI_TFT_ILI9341.c ****             _buf[0] = 0x28;
 162:Core/Src/SPI_TFT_ILI9341.c ****             break;
 163:Core/Src/SPI_TFT_ILI9341.c ****         case 2:
 164:Core/Src/SPI_TFT_ILI9341.c ****             _buf[0] = 0x88;
 165:Core/Src/SPI_TFT_ILI9341.c ****             break;
 166:Core/Src/SPI_TFT_ILI9341.c ****         case 3:
 167:Core/Src/SPI_TFT_ILI9341.c ****             _buf[0] = 0xE8;
 168:Core/Src/SPI_TFT_ILI9341.c ****             break;
 169:Core/Src/SPI_TFT_ILI9341.c ****     }
 170:Core/Src/SPI_TFT_ILI9341.c ****     handle->_spi(_buf, 1);
 171:Core/Src/SPI_TFT_ILI9341.c ****     handle->_cs(1); 
 172:Core/Src/SPI_TFT_ILI9341.c ****     WindowMax(handle);
 173:Core/Src/SPI_TFT_ILI9341.c **** } 
 174:Core/Src/SPI_TFT_ILI9341.c **** 
 175:Core/Src/SPI_TFT_ILI9341.c **** 
 176:Core/Src/SPI_TFT_ILI9341.c **** // write command to tft register
 177:Core/Src/SPI_TFT_ILI9341.c **** void wr_cmd(SPI_TFT_ILI9341_DriverStruct *handle, unsigned char cmd)
 178:Core/Src/SPI_TFT_ILI9341.c **** {
  28              		.loc 1 178 1 view -0
  29              		.cfi_startproc
  30              		@ args = 0, pretend = 0, frame = 0
  31              		@ frame_needed = 0, uses_anonymous_args = 0
  32              		.loc 1 178 1 is_stmt 0 view .LVU1
  33 0000 38B5     		push	{r3, r4, r5, lr}
  34              	.LCFI0:
  35              		.cfi_def_cfa_offset 16
  36              		.cfi_offset 3, -16
  37              		.cfi_offset 4, -12
  38              		.cfi_offset 5, -8
  39              		.cfi_offset 14, -4
  40 0002 0446     		mov	r4, r0
  41 0004 0D46     		mov	r5, r1
 179:Core/Src/SPI_TFT_ILI9341.c ****     handle->_dc(0);
  42              		.loc 1 179 5 is_stmt 1 view .LVU2
  43              		.loc 1 179 11 is_stmt 0 view .LVU3
  44 0006 C368     		ldr	r3, [r0, #12]
  45              		.loc 1 179 5 view .LVU4
  46 0008 0020     		movs	r0, #0
  47              	.LVL1:
  48              		.loc 1 179 5 view .LVU5
  49 000a 9847     		blx	r3
  50              	.LVL2:
ARM GAS  /var/folders/gy/djtlh36967g6qz60tx0ltrsw0000gn/T//ccFocqOw.s 			page 5


 180:Core/Src/SPI_TFT_ILI9341.c ****     handle->_cs(0);
  51              		.loc 1 180 5 is_stmt 1 view .LVU6
  52              		.loc 1 180 11 is_stmt 0 view .LVU7
  53 000c 6368     		ldr	r3, [r4, #4]
  54              		.loc 1 180 5 view .LVU8
  55 000e 0020     		movs	r0, #0
  56 0010 9847     		blx	r3
  57              	.LVL3:
 181:Core/Src/SPI_TFT_ILI9341.c ****     _buf[0] = cmd;      // mbed lib
  58              		.loc 1 181 5 is_stmt 1 view .LVU9
  59              		.loc 1 181 13 is_stmt 0 view .LVU10
  60 0012 0448     		ldr	r0, .L3
  61 0014 0570     		strb	r5, [r0]
 182:Core/Src/SPI_TFT_ILI9341.c ****     handle->_spi(_buf, 1);
  62              		.loc 1 182 5 is_stmt 1 view .LVU11
  63              		.loc 1 182 11 is_stmt 0 view .LVU12
  64 0016 2368     		ldr	r3, [r4]
  65              		.loc 1 182 5 view .LVU13
  66 0018 0121     		movs	r1, #1
  67 001a 9847     		blx	r3
  68              	.LVL4:
 183:Core/Src/SPI_TFT_ILI9341.c ****     handle->_dc(1);
  69              		.loc 1 183 5 is_stmt 1 view .LVU14
  70              		.loc 1 183 11 is_stmt 0 view .LVU15
  71 001c E368     		ldr	r3, [r4, #12]
  72              		.loc 1 183 5 view .LVU16
  73 001e 0120     		movs	r0, #1
  74 0020 9847     		blx	r3
  75              	.LVL5:
 184:Core/Src/SPI_TFT_ILI9341.c **** }
  76              		.loc 1 184 1 view .LVU17
  77 0022 38BD     		pop	{r3, r4, r5, pc}
  78              	.LVL6:
  79              	.L4:
  80              		.loc 1 184 1 view .LVU18
  81              		.align	2
  82              	.L3:
  83 0024 00000000 		.word	.LANCHOR0
  84              		.cfi_endproc
  85              	.LFE6:
  87              		.section	.text.window,"ax",%progbits
  88              		.align	1
  89              		.syntax unified
  90              		.thumb
  91              		.thumb_func
  92              		.fpu fpv5-d16
  94              	window:
  95              	.LVL7:
  96              	.LFB10:
 185:Core/Src/SPI_TFT_ILI9341.c **** 
 186:Core/Src/SPI_TFT_ILI9341.c **** 
 187:Core/Src/SPI_TFT_ILI9341.c **** void wr_dat(SPI_TFT_ILI9341_DriverStruct *handle, unsigned char value)
 188:Core/Src/SPI_TFT_ILI9341.c **** {
 189:Core/Src/SPI_TFT_ILI9341.c ****    _buf[0] = value;
 190:Core/Src/SPI_TFT_ILI9341.c ****    handle->_spi(_buf, 1);
 191:Core/Src/SPI_TFT_ILI9341.c **** }
 192:Core/Src/SPI_TFT_ILI9341.c **** 
ARM GAS  /var/folders/gy/djtlh36967g6qz60tx0ltrsw0000gn/T//ccFocqOw.s 			page 6


 193:Core/Src/SPI_TFT_ILI9341.c **** 
 194:Core/Src/SPI_TFT_ILI9341.c **** // the ILI9341 can read 
 195:Core/Src/SPI_TFT_ILI9341.c **** //char rd_byte(SPI_TFT_ILI9341_DriverStruct *handle, unsigned char cmd)
 196:Core/Src/SPI_TFT_ILI9341.c **** //{
 197:Core/Src/SPI_TFT_ILI9341.c ****     //char r;
 198:Core/Src/SPI_TFT_ILI9341.c ****     //handle->_dc(0);
 199:Core/Src/SPI_TFT_ILI9341.c ****     //handle->_cs(0);
 200:Core/Src/SPI_TFT_ILI9341.c ****     //handle->__spi(cmd);      // mbed lib
 201:Core/Src/SPI_TFT_ILI9341.c ****     //handle->_cs(1);
 202:Core/Src/SPI_TFT_ILI9341.c ****     //r = handle->__spi(0xff);
 203:Core/Src/SPI_TFT_ILI9341.c ****     //handle->_cs(1);    
 204:Core/Src/SPI_TFT_ILI9341.c ****     //return r;
 205:Core/Src/SPI_TFT_ILI9341.c **** //}
 206:Core/Src/SPI_TFT_ILI9341.c **** 
 207:Core/Src/SPI_TFT_ILI9341.c **** //// read 32 bit
 208:Core/Src/SPI_TFT_ILI9341.c **** //int rd_32(SPI_TFT_ILI9341_DriverStruct *handle, unsigned char cmd)
 209:Core/Src/SPI_TFT_ILI9341.c **** //{
 210:Core/Src/SPI_TFT_ILI9341.c ****     //int d;
 211:Core/Src/SPI_TFT_ILI9341.c ****     //char r;
 212:Core/Src/SPI_TFT_ILI9341.c ****     //handle->_dc(0);
 213:Core/Src/SPI_TFT_ILI9341.c ****     //handle->_cs(0);
 214:Core/Src/SPI_TFT_ILI9341.c ****     
 215:Core/Src/SPI_TFT_ILI9341.c ****     //d = cmd;
 216:Core/Src/SPI_TFT_ILI9341.c ****     ////d = d << 1;
 217:Core/Src/SPI_TFT_ILI9341.c ****     ////SPI::format(9,3);    // we have to add a dummy clock cycle
 218:Core/Src/SPI_TFT_ILI9341.c ****     //handle->__spi(d);
 219:Core/Src/SPI_TFT_ILI9341.c ****     ////handle->_spi->format(8,3);   
 220:Core/Src/SPI_TFT_ILI9341.c ****     //handle->_dc(1);
 221:Core/Src/SPI_TFT_ILI9341.c ****     //r = handle->__spi(0xff);
 222:Core/Src/SPI_TFT_ILI9341.c ****     //d = r;
 223:Core/Src/SPI_TFT_ILI9341.c ****     //r = handle->__spi(0xff);
 224:Core/Src/SPI_TFT_ILI9341.c ****     //d = (d << 8) | r;
 225:Core/Src/SPI_TFT_ILI9341.c ****     //r = handle->__spi(0xff);
 226:Core/Src/SPI_TFT_ILI9341.c ****     //d = (d << 8) | r;
 227:Core/Src/SPI_TFT_ILI9341.c ****     //r = handle->__spi(0xff);
 228:Core/Src/SPI_TFT_ILI9341.c ****     //d = (d << 8) | r;
 229:Core/Src/SPI_TFT_ILI9341.c ****     //handle->_cs(1);   
 230:Core/Src/SPI_TFT_ILI9341.c ****     //return d;
 231:Core/Src/SPI_TFT_ILI9341.c **** //}
 232:Core/Src/SPI_TFT_ILI9341.c **** 
 233:Core/Src/SPI_TFT_ILI9341.c **** //int SPI_TFT_ILI9341_read_ID(SPI_TFT_ILI9341_DriverStruct *handle)
 234:Core/Src/SPI_TFT_ILI9341.c **** //{
 235:Core/Src/SPI_TFT_ILI9341.c ****     //int r;
 236:Core/Src/SPI_TFT_ILI9341.c ****     ////r = rd_byte(0xd3);
 237:Core/Src/SPI_TFT_ILI9341.c ****     ////r = rd_byte(0xd3);
 238:Core/Src/SPI_TFT_ILI9341.c ****     ////r = rd_byte(0xd3);
 239:Core/Src/SPI_TFT_ILI9341.c ****     ////r = rd_byte(0xd3);
 240:Core/Src/SPI_TFT_ILI9341.c ****     //r=rd_32(handle,0xd3);
 241:Core/Src/SPI_TFT_ILI9341.c ****     //return r;
 242:Core/Src/SPI_TFT_ILI9341.c **** //}
 243:Core/Src/SPI_TFT_ILI9341.c **** 
 244:Core/Src/SPI_TFT_ILI9341.c **** 
 245:Core/Src/SPI_TFT_ILI9341.c **** // Init code based on MI0283QT datasheet
 246:Core/Src/SPI_TFT_ILI9341.c **** void tft_reset(SPI_TFT_ILI9341_DriverStruct *handle)
 247:Core/Src/SPI_TFT_ILI9341.c **** {
 248:Core/Src/SPI_TFT_ILI9341.c ****     handle->_cs(1);                           // cs high
 249:Core/Src/SPI_TFT_ILI9341.c ****     handle->_dc(1);                           // dc high 
ARM GAS  /var/folders/gy/djtlh36967g6qz60tx0ltrsw0000gn/T//ccFocqOw.s 			page 7


 250:Core/Src/SPI_TFT_ILI9341.c ****     handle->_reset(0);                        // display reset
 251:Core/Src/SPI_TFT_ILI9341.c **** 
 252:Core/Src/SPI_TFT_ILI9341.c ****     //wait_us(50);
 253:Core/Src/SPI_TFT_ILI9341.c ****     handle->_waitms(1);
 254:Core/Src/SPI_TFT_ILI9341.c ****     handle->_reset(1);                       // end hardware reset
 255:Core/Src/SPI_TFT_ILI9341.c ****     handle->_waitms(5);
 256:Core/Src/SPI_TFT_ILI9341.c **** 
 257:Core/Src/SPI_TFT_ILI9341.c ****     wr_cmd(handle,0x01);                     // SW reset  
 258:Core/Src/SPI_TFT_ILI9341.c ****     handle->_waitms(5);
 259:Core/Src/SPI_TFT_ILI9341.c ****     wr_cmd(handle,0x28);                     // display off  
 260:Core/Src/SPI_TFT_ILI9341.c **** 
 261:Core/Src/SPI_TFT_ILI9341.c ****     /* Start Initial Sequence ----------------------------------------------------*/
 262:Core/Src/SPI_TFT_ILI9341.c ****     wr_cmd(handle,0xCF);                     
 263:Core/Src/SPI_TFT_ILI9341.c ****     INIBUF();
 264:Core/Src/SPI_TFT_ILI9341.c ****     WBUF(0x00);
 265:Core/Src/SPI_TFT_ILI9341.c ****     WBUF(0x83);
 266:Core/Src/SPI_TFT_ILI9341.c ****     WBUF(0x30);
 267:Core/Src/SPI_TFT_ILI9341.c ****     handle->_spi(_buf, _bufi);
 268:Core/Src/SPI_TFT_ILI9341.c ****     handle->_cs(1);
 269:Core/Src/SPI_TFT_ILI9341.c ****     
 270:Core/Src/SPI_TFT_ILI9341.c ****     wr_cmd(handle,0xED);                     
 271:Core/Src/SPI_TFT_ILI9341.c ****     INIBUF();
 272:Core/Src/SPI_TFT_ILI9341.c ****     WBUF(0x64);
 273:Core/Src/SPI_TFT_ILI9341.c ****     WBUF(0x03);
 274:Core/Src/SPI_TFT_ILI9341.c ****     WBUF(0x12);
 275:Core/Src/SPI_TFT_ILI9341.c ****     WBUF(0x81);
 276:Core/Src/SPI_TFT_ILI9341.c ****     handle->_spi(_buf, _bufi);
 277:Core/Src/SPI_TFT_ILI9341.c ****     handle->_cs(1);
 278:Core/Src/SPI_TFT_ILI9341.c ****     
 279:Core/Src/SPI_TFT_ILI9341.c ****     wr_cmd(handle,0xE8);                     
 280:Core/Src/SPI_TFT_ILI9341.c ****     INIBUF();
 281:Core/Src/SPI_TFT_ILI9341.c ****     WBUF(0x85);
 282:Core/Src/SPI_TFT_ILI9341.c ****     WBUF(0x01);
 283:Core/Src/SPI_TFT_ILI9341.c ****     WBUF(0x79);
 284:Core/Src/SPI_TFT_ILI9341.c ****     handle->_spi(_buf, _bufi);
 285:Core/Src/SPI_TFT_ILI9341.c ****     handle->_cs(1);
 286:Core/Src/SPI_TFT_ILI9341.c ****     
 287:Core/Src/SPI_TFT_ILI9341.c ****     wr_cmd(handle,0xCB);                     
 288:Core/Src/SPI_TFT_ILI9341.c ****     INIBUF();
 289:Core/Src/SPI_TFT_ILI9341.c ****     WBUF(0x39);
 290:Core/Src/SPI_TFT_ILI9341.c ****     WBUF(0x2C);
 291:Core/Src/SPI_TFT_ILI9341.c ****     WBUF(0x00);
 292:Core/Src/SPI_TFT_ILI9341.c ****     WBUF(0x34);
 293:Core/Src/SPI_TFT_ILI9341.c ****     WBUF(0x02);
 294:Core/Src/SPI_TFT_ILI9341.c ****     handle->_spi(_buf, _bufi);
 295:Core/Src/SPI_TFT_ILI9341.c ****     handle->_cs(1);
 296:Core/Src/SPI_TFT_ILI9341.c **** 
 297:Core/Src/SPI_TFT_ILI9341.c ****     wr_cmd(handle,0xF7);                     
 298:Core/Src/SPI_TFT_ILI9341.c ****     _buf[0] = 0x20;
 299:Core/Src/SPI_TFT_ILI9341.c ****     handle->_spi(_buf, 1);
 300:Core/Src/SPI_TFT_ILI9341.c ****     handle->_cs(1);
 301:Core/Src/SPI_TFT_ILI9341.c **** 
 302:Core/Src/SPI_TFT_ILI9341.c ****     wr_cmd(handle,0xEA);                     
 303:Core/Src/SPI_TFT_ILI9341.c ****     INIBUF();
 304:Core/Src/SPI_TFT_ILI9341.c ****     WBUF(0x00);
 305:Core/Src/SPI_TFT_ILI9341.c ****     WBUF(0x00);
 306:Core/Src/SPI_TFT_ILI9341.c ****     handle->_spi(_buf, _bufi);
ARM GAS  /var/folders/gy/djtlh36967g6qz60tx0ltrsw0000gn/T//ccFocqOw.s 			page 8


 307:Core/Src/SPI_TFT_ILI9341.c ****     handle->_cs(1);
 308:Core/Src/SPI_TFT_ILI9341.c ****     
 309:Core/Src/SPI_TFT_ILI9341.c ****     wr_cmd(handle,0xC0);                     // POWER_CONTROL_1
 310:Core/Src/SPI_TFT_ILI9341.c ****     _buf[0] = 0x26;
 311:Core/Src/SPI_TFT_ILI9341.c ****     handle->_spi(_buf, 1);
 312:Core/Src/SPI_TFT_ILI9341.c ****     handle->_cs(1);
 313:Core/Src/SPI_TFT_ILI9341.c ****  
 314:Core/Src/SPI_TFT_ILI9341.c ****     wr_cmd(handle,0xC1);                     // POWER_CONTROL_2
 315:Core/Src/SPI_TFT_ILI9341.c ****     _buf[0] = 0x11;
 316:Core/Src/SPI_TFT_ILI9341.c ****     handle->_spi(_buf, 1);
 317:Core/Src/SPI_TFT_ILI9341.c ****     handle->_cs(1);
 318:Core/Src/SPI_TFT_ILI9341.c ****     
 319:Core/Src/SPI_TFT_ILI9341.c ****     wr_cmd(handle,0xC5);                     // VCOM_CONTROL_1
 320:Core/Src/SPI_TFT_ILI9341.c ****     INIBUF();
 321:Core/Src/SPI_TFT_ILI9341.c ****     WBUF(0x35);
 322:Core/Src/SPI_TFT_ILI9341.c ****     WBUF(0x3E);
 323:Core/Src/SPI_TFT_ILI9341.c ****     handle->_spi(_buf, _bufi);
 324:Core/Src/SPI_TFT_ILI9341.c ****     handle->_cs(1);
 325:Core/Src/SPI_TFT_ILI9341.c ****     
 326:Core/Src/SPI_TFT_ILI9341.c ****     wr_cmd(handle,0xC7);                     // VCOM_CONTROL_2
 327:Core/Src/SPI_TFT_ILI9341.c ****     _buf[0] = 0xBE;
 328:Core/Src/SPI_TFT_ILI9341.c ****     handle->_spi(_buf, 1);
 329:Core/Src/SPI_TFT_ILI9341.c ****     handle->_cs(1); 
 330:Core/Src/SPI_TFT_ILI9341.c ****     
 331:Core/Src/SPI_TFT_ILI9341.c ****     wr_cmd(handle,0x36);                     // MEMORY_ACCESS_CONTROL
 332:Core/Src/SPI_TFT_ILI9341.c ****     _buf[0] = 0x48;
 333:Core/Src/SPI_TFT_ILI9341.c ****     handle->_spi(_buf, 1);
 334:Core/Src/SPI_TFT_ILI9341.c ****     handle->_cs(1); 
 335:Core/Src/SPI_TFT_ILI9341.c ****     
 336:Core/Src/SPI_TFT_ILI9341.c ****     wr_cmd(handle,0x3A);                     // COLMOD_PIXEL_FORMAT_SET
 337:Core/Src/SPI_TFT_ILI9341.c ****     _buf[0] = 0x55;
 338:Core/Src/SPI_TFT_ILI9341.c ****     handle->_spi(_buf, 1);
 339:Core/Src/SPI_TFT_ILI9341.c ****     handle->_cs(1);
 340:Core/Src/SPI_TFT_ILI9341.c ****     
 341:Core/Src/SPI_TFT_ILI9341.c ****     wr_cmd(handle,0xB1);                     // Frame Rate
 342:Core/Src/SPI_TFT_ILI9341.c ****     INIBUF();
 343:Core/Src/SPI_TFT_ILI9341.c ****     WBUF(0x00);
 344:Core/Src/SPI_TFT_ILI9341.c ****     WBUF(0x1B);               
 345:Core/Src/SPI_TFT_ILI9341.c ****     handle->_spi(_buf, _bufi);
 346:Core/Src/SPI_TFT_ILI9341.c ****     handle->_cs(1);
 347:Core/Src/SPI_TFT_ILI9341.c ****     
 348:Core/Src/SPI_TFT_ILI9341.c ****     wr_cmd(handle,0xF2);                     // Gamma Function Disable
 349:Core/Src/SPI_TFT_ILI9341.c ****     _buf[0] = 0x08;
 350:Core/Src/SPI_TFT_ILI9341.c ****     handle->_spi(_buf, 1);
 351:Core/Src/SPI_TFT_ILI9341.c ****     handle->_cs(1); 
 352:Core/Src/SPI_TFT_ILI9341.c ****     
 353:Core/Src/SPI_TFT_ILI9341.c ****     wr_cmd(handle,0x26);                     
 354:Core/Src/SPI_TFT_ILI9341.c ****     _buf[0] = 0x01;
 355:Core/Src/SPI_TFT_ILI9341.c ****     handle->_spi(_buf, 1);
 356:Core/Src/SPI_TFT_ILI9341.c ****     handle->_cs(1); 
 357:Core/Src/SPI_TFT_ILI9341.c ****     
 358:Core/Src/SPI_TFT_ILI9341.c ****     wr_cmd(handle,0xE0);                     // positive gamma correction
 359:Core/Src/SPI_TFT_ILI9341.c ****     INIBUF();
 360:Core/Src/SPI_TFT_ILI9341.c ****     WBUF(0x1F); 
 361:Core/Src/SPI_TFT_ILI9341.c ****     WBUF(0x1A); 
 362:Core/Src/SPI_TFT_ILI9341.c ****     WBUF(0x18); 
 363:Core/Src/SPI_TFT_ILI9341.c ****     WBUF(0x0A); 
ARM GAS  /var/folders/gy/djtlh36967g6qz60tx0ltrsw0000gn/T//ccFocqOw.s 			page 9


 364:Core/Src/SPI_TFT_ILI9341.c ****     WBUF(0x0F); 
 365:Core/Src/SPI_TFT_ILI9341.c ****     WBUF(0x06); 
 366:Core/Src/SPI_TFT_ILI9341.c ****     WBUF(0x45); 
 367:Core/Src/SPI_TFT_ILI9341.c ****     WBUF(0x87); 
 368:Core/Src/SPI_TFT_ILI9341.c ****     WBUF(0x32); 
 369:Core/Src/SPI_TFT_ILI9341.c ****     WBUF(0x0A); 
 370:Core/Src/SPI_TFT_ILI9341.c ****     WBUF(0x07); 
 371:Core/Src/SPI_TFT_ILI9341.c ****     WBUF(0x02); 
 372:Core/Src/SPI_TFT_ILI9341.c ****     WBUF(0x07);
 373:Core/Src/SPI_TFT_ILI9341.c ****     WBUF(0x05); 
 374:Core/Src/SPI_TFT_ILI9341.c ****     WBUF(0x00);
 375:Core/Src/SPI_TFT_ILI9341.c ****     handle->_spi(_buf, _bufi);
 376:Core/Src/SPI_TFT_ILI9341.c ****     handle->_cs(1);
 377:Core/Src/SPI_TFT_ILI9341.c ****     
 378:Core/Src/SPI_TFT_ILI9341.c ****     wr_cmd(handle,0xE1);                     // negativ gamma correction
 379:Core/Src/SPI_TFT_ILI9341.c ****     INIBUF();
 380:Core/Src/SPI_TFT_ILI9341.c ****     WBUF(0x00); 
 381:Core/Src/SPI_TFT_ILI9341.c ****     WBUF(0x25); 
 382:Core/Src/SPI_TFT_ILI9341.c ****     WBUF(0x27); 
 383:Core/Src/SPI_TFT_ILI9341.c ****     WBUF(0x05); 
 384:Core/Src/SPI_TFT_ILI9341.c ****     WBUF(0x10); 
 385:Core/Src/SPI_TFT_ILI9341.c ****     WBUF(0x09); 
 386:Core/Src/SPI_TFT_ILI9341.c ****     WBUF(0x3A); 
 387:Core/Src/SPI_TFT_ILI9341.c ****     WBUF(0x78); 
 388:Core/Src/SPI_TFT_ILI9341.c ****     WBUF(0x4D); 
 389:Core/Src/SPI_TFT_ILI9341.c ****     WBUF(0x05); 
 390:Core/Src/SPI_TFT_ILI9341.c ****     WBUF(0x18); 
 391:Core/Src/SPI_TFT_ILI9341.c ****     WBUF(0x0D); 
 392:Core/Src/SPI_TFT_ILI9341.c ****     WBUF(0x38);
 393:Core/Src/SPI_TFT_ILI9341.c ****     WBUF(0x3A); 
 394:Core/Src/SPI_TFT_ILI9341.c ****     WBUF(0x1F);
 395:Core/Src/SPI_TFT_ILI9341.c ****     handle->_spi(_buf, _bufi);
 396:Core/Src/SPI_TFT_ILI9341.c ****     handle->_cs(1);
 397:Core/Src/SPI_TFT_ILI9341.c ****     
 398:Core/Src/SPI_TFT_ILI9341.c ****     WindowMax(handle);
 399:Core/Src/SPI_TFT_ILI9341.c ****     
 400:Core/Src/SPI_TFT_ILI9341.c ****     //wr_cmd(handle,0x34);                     // tearing effect off
 401:Core/Src/SPI_TFT_ILI9341.c ****     //handle->_cs(1);
 402:Core/Src/SPI_TFT_ILI9341.c ****     
 403:Core/Src/SPI_TFT_ILI9341.c ****     //wr_cmd(handle,0x35);                     // tearing effect on
 404:Core/Src/SPI_TFT_ILI9341.c ****     //handle->_cs(1);
 405:Core/Src/SPI_TFT_ILI9341.c ****     
 406:Core/Src/SPI_TFT_ILI9341.c ****     wr_cmd(handle,0xB7);                       // entry mode
 407:Core/Src/SPI_TFT_ILI9341.c ****     _buf[0] = 0x07;
 408:Core/Src/SPI_TFT_ILI9341.c ****     handle->_spi(_buf, 1);
 409:Core/Src/SPI_TFT_ILI9341.c ****     handle->_cs(1);
 410:Core/Src/SPI_TFT_ILI9341.c ****     
 411:Core/Src/SPI_TFT_ILI9341.c ****     wr_cmd(handle,0xB6);                       // display function control
 412:Core/Src/SPI_TFT_ILI9341.c ****     INIBUF();
 413:Core/Src/SPI_TFT_ILI9341.c ****     WBUF(0x0A);
 414:Core/Src/SPI_TFT_ILI9341.c ****     WBUF(0x82);
 415:Core/Src/SPI_TFT_ILI9341.c ****     WBUF(0x27);
 416:Core/Src/SPI_TFT_ILI9341.c ****     WBUF(0x00);
 417:Core/Src/SPI_TFT_ILI9341.c ****     handle->_spi(_buf, _bufi);
 418:Core/Src/SPI_TFT_ILI9341.c ****     handle->_cs(1);
 419:Core/Src/SPI_TFT_ILI9341.c ****     
 420:Core/Src/SPI_TFT_ILI9341.c ****     wr_cmd(handle,0x11);                     // sleep out
ARM GAS  /var/folders/gy/djtlh36967g6qz60tx0ltrsw0000gn/T//ccFocqOw.s 			page 10


 421:Core/Src/SPI_TFT_ILI9341.c ****     handle->_cs(1);
 422:Core/Src/SPI_TFT_ILI9341.c ****     
 423:Core/Src/SPI_TFT_ILI9341.c ****     handle->_waitms(100);
 424:Core/Src/SPI_TFT_ILI9341.c ****     
 425:Core/Src/SPI_TFT_ILI9341.c ****     wr_cmd(handle,0x29);                     // display on
 426:Core/Src/SPI_TFT_ILI9341.c ****     handle->_cs(1);
 427:Core/Src/SPI_TFT_ILI9341.c ****     
 428:Core/Src/SPI_TFT_ILI9341.c ****     handle->_waitms(100);
 429:Core/Src/SPI_TFT_ILI9341.c ****     
 430:Core/Src/SPI_TFT_ILI9341.c ****  }
 431:Core/Src/SPI_TFT_ILI9341.c **** 
 432:Core/Src/SPI_TFT_ILI9341.c **** 
 433:Core/Src/SPI_TFT_ILI9341.c **** void SPI_TFT_ILI9341_pixel(SPI_TFT_ILI9341_DriverStruct *handle, int x, int y,int colour)
 434:Core/Src/SPI_TFT_ILI9341.c **** {
 435:Core/Src/SPI_TFT_ILI9341.c ****     wr_cmd(handle, 0x2A);
 436:Core/Src/SPI_TFT_ILI9341.c ****     INIBUF();
 437:Core/Src/SPI_TFT_ILI9341.c ****     WBUF(x >> 8);
 438:Core/Src/SPI_TFT_ILI9341.c ****     WBUF(x);
 439:Core/Src/SPI_TFT_ILI9341.c ****     handle->_spi(_buf, _bufi);
 440:Core/Src/SPI_TFT_ILI9341.c ****     handle->_cs(1);
 441:Core/Src/SPI_TFT_ILI9341.c ****     wr_cmd(handle, 0x2B);
 442:Core/Src/SPI_TFT_ILI9341.c ****     INIBUF();
 443:Core/Src/SPI_TFT_ILI9341.c ****     WBUF(y >> 8);
 444:Core/Src/SPI_TFT_ILI9341.c ****     WBUF(y); 
 445:Core/Src/SPI_TFT_ILI9341.c ****     handle->_spi(_buf, _bufi);
 446:Core/Src/SPI_TFT_ILI9341.c ****     handle->_cs(1);
 447:Core/Src/SPI_TFT_ILI9341.c ****     wr_cmd(handle, 0x2C);  // send pixel
 448:Core/Src/SPI_TFT_ILI9341.c ****     INIBUF();
 449:Core/Src/SPI_TFT_ILI9341.c ****     WBUF(colour >> 8);
 450:Core/Src/SPI_TFT_ILI9341.c ****     WBUF(colour & 0xff);
 451:Core/Src/SPI_TFT_ILI9341.c ****     handle->_spi(_buf, _bufi);
 452:Core/Src/SPI_TFT_ILI9341.c ****     handle->_cs(1);
 453:Core/Src/SPI_TFT_ILI9341.c **** }
 454:Core/Src/SPI_TFT_ILI9341.c **** 
 455:Core/Src/SPI_TFT_ILI9341.c **** 
 456:Core/Src/SPI_TFT_ILI9341.c **** void window(SPI_TFT_ILI9341_DriverStruct *handle, unsigned int x,unsigned int y, unsigned int w, un
 457:Core/Src/SPI_TFT_ILI9341.c **** {
  97              		.loc 1 457 1 is_stmt 1 view -0
  98              		.cfi_startproc
  99              		@ args = 4, pretend = 0, frame = 0
 100              		@ frame_needed = 0, uses_anonymous_args = 0
 101              		.loc 1 457 1 is_stmt 0 view .LVU20
 102 0000 2DE9F843 		push	{r3, r4, r5, r6, r7, r8, r9, lr}
 103              	.LCFI1:
 104              		.cfi_def_cfa_offset 32
 105              		.cfi_offset 3, -32
 106              		.cfi_offset 4, -28
 107              		.cfi_offset 5, -24
 108              		.cfi_offset 6, -20
 109              		.cfi_offset 7, -16
 110              		.cfi_offset 8, -12
 111              		.cfi_offset 9, -8
 112              		.cfi_offset 14, -4
 113 0004 0646     		mov	r6, r0
 114 0006 0F46     		mov	r7, r1
 115 0008 1546     		mov	r5, r2
 116 000a 9846     		mov	r8, r3
ARM GAS  /var/folders/gy/djtlh36967g6qz60tx0ltrsw0000gn/T//ccFocqOw.s 			page 11


 117 000c DDF82090 		ldr	r9, [sp, #32]
 458:Core/Src/SPI_TFT_ILI9341.c ****     wr_cmd(handle,0x2A);
 118              		.loc 1 458 5 is_stmt 1 view .LVU21
 119 0010 2A21     		movs	r1, #42
 120              	.LVL8:
 121              		.loc 1 458 5 is_stmt 0 view .LVU22
 122 0012 FFF7FEFF 		bl	wr_cmd
 123              	.LVL9:
 459:Core/Src/SPI_TFT_ILI9341.c ****     INIBUF();
 124              		.loc 1 459 5 is_stmt 1 view .LVU23
 460:Core/Src/SPI_TFT_ILI9341.c ****     WBUF(x >> 8);
 125              		.loc 1 460 5 view .LVU24
 126 0016 3B0A     		lsrs	r3, r7, #8
 127 0018 1A4C     		ldr	r4, .L7
 128 001a 2370     		strb	r3, [r4]
 461:Core/Src/SPI_TFT_ILI9341.c ****     WBUF(x);
 129              		.loc 1 461 5 view .LVU25
 130 001c FBB2     		uxtb	r3, r7
 131 001e 6370     		strb	r3, [r4, #1]
 462:Core/Src/SPI_TFT_ILI9341.c ****     WBUF((x+w-1) >> 8);
 132              		.loc 1 462 5 view .LVU26
 133 0020 4744     		add	r7, r7, r8
 134              	.LVL10:
 135              		.loc 1 462 5 is_stmt 0 view .LVU27
 136 0022 013F     		subs	r7, r7, #1
 137 0024 3F0A     		lsrs	r7, r7, #8
 138 0026 A770     		strb	r7, [r4, #2]
 463:Core/Src/SPI_TFT_ILI9341.c ****     WBUF(x+w-1);
 139              		.loc 1 463 5 is_stmt 1 view .LVU28
 140 0028 4344     		add	r3, r3, r8
 141 002a DBB2     		uxtb	r3, r3
 142 002c DFF85880 		ldr	r8, .L7+4
 143              	.LVL11:
 144              		.loc 1 463 5 is_stmt 0 view .LVU29
 145 0030 0427     		movs	r7, #4
 146 0032 C8F80070 		str	r7, [r8]
 147 0036 013B     		subs	r3, r3, #1
 148 0038 E370     		strb	r3, [r4, #3]
 464:Core/Src/SPI_TFT_ILI9341.c ****     handle->_spi(_buf, _bufi);
 149              		.loc 1 464 5 is_stmt 1 view .LVU30
 150              		.loc 1 464 11 is_stmt 0 view .LVU31
 151 003a 3368     		ldr	r3, [r6]
 152              		.loc 1 464 5 view .LVU32
 153 003c 3946     		mov	r1, r7
 154 003e 2046     		mov	r0, r4
 155 0040 9847     		blx	r3
 156              	.LVL12:
 465:Core/Src/SPI_TFT_ILI9341.c ****     handle->_cs(1);
 157              		.loc 1 465 5 is_stmt 1 view .LVU33
 158              		.loc 1 465 11 is_stmt 0 view .LVU34
 159 0042 7368     		ldr	r3, [r6, #4]
 160              		.loc 1 465 5 view .LVU35
 161 0044 0120     		movs	r0, #1
 162 0046 9847     		blx	r3
 163              	.LVL13:
 466:Core/Src/SPI_TFT_ILI9341.c ****     wr_cmd(handle,0x2B);
 164              		.loc 1 466 5 is_stmt 1 view .LVU36
ARM GAS  /var/folders/gy/djtlh36967g6qz60tx0ltrsw0000gn/T//ccFocqOw.s 			page 12


 165 0048 2B21     		movs	r1, #43
 166 004a 3046     		mov	r0, r6
 167 004c FFF7FEFF 		bl	wr_cmd
 168              	.LVL14:
 467:Core/Src/SPI_TFT_ILI9341.c ****     INIBUF();
 169              		.loc 1 467 5 view .LVU37
 468:Core/Src/SPI_TFT_ILI9341.c ****     WBUF(y >> 8);
 170              		.loc 1 468 5 view .LVU38
 171 0050 2B0A     		lsrs	r3, r5, #8
 172 0052 2370     		strb	r3, [r4]
 469:Core/Src/SPI_TFT_ILI9341.c ****     WBUF(y);
 173              		.loc 1 469 5 view .LVU39
 174 0054 EBB2     		uxtb	r3, r5
 175 0056 6370     		strb	r3, [r4, #1]
 470:Core/Src/SPI_TFT_ILI9341.c ****     WBUF((y+h-1) >> 8);
 176              		.loc 1 470 5 view .LVU40
 177 0058 4D44     		add	r5, r5, r9
 178              	.LVL15:
 179              		.loc 1 470 5 is_stmt 0 view .LVU41
 180 005a 013D     		subs	r5, r5, #1
 181 005c 2D0A     		lsrs	r5, r5, #8
 182 005e A570     		strb	r5, [r4, #2]
 471:Core/Src/SPI_TFT_ILI9341.c ****     WBUF(y+h-1);
 183              		.loc 1 471 5 is_stmt 1 view .LVU42
 184 0060 9944     		add	r9, r9, r3
 185 0062 5FFA89F9 		uxtb	r9, r9
 186 0066 C8F80070 		str	r7, [r8]
 187 006a 09F1FF39 		add	r9, r9, #-1
 188 006e 84F80390 		strb	r9, [r4, #3]
 472:Core/Src/SPI_TFT_ILI9341.c ****     handle->_spi(_buf, _bufi);
 189              		.loc 1 472 5 view .LVU43
 190              		.loc 1 472 11 is_stmt 0 view .LVU44
 191 0072 3368     		ldr	r3, [r6]
 192              		.loc 1 472 5 view .LVU45
 193 0074 3946     		mov	r1, r7
 194 0076 2046     		mov	r0, r4
 195 0078 9847     		blx	r3
 196              	.LVL16:
 473:Core/Src/SPI_TFT_ILI9341.c ****     handle->_cs(1);
 197              		.loc 1 473 5 is_stmt 1 view .LVU46
 198              		.loc 1 473 11 is_stmt 0 view .LVU47
 199 007a 7368     		ldr	r3, [r6, #4]
 200              		.loc 1 473 5 view .LVU48
 201 007c 0120     		movs	r0, #1
 202 007e 9847     		blx	r3
 203              	.LVL17:
 474:Core/Src/SPI_TFT_ILI9341.c **** 
 475:Core/Src/SPI_TFT_ILI9341.c **** }
 204              		.loc 1 475 1 view .LVU49
 205 0080 BDE8F883 		pop	{r3, r4, r5, r6, r7, r8, r9, pc}
 206              	.LVL18:
 207              	.L8:
 208              		.loc 1 475 1 view .LVU50
 209              		.align	2
 210              	.L7:
 211 0084 00000000 		.word	.LANCHOR0
 212 0088 00000000 		.word	.LANCHOR1
ARM GAS  /var/folders/gy/djtlh36967g6qz60tx0ltrsw0000gn/T//ccFocqOw.s 			page 13


 213              		.cfi_endproc
 214              	.LFE10:
 216              		.section	.text.SPI_TFT_ILI9341_set_foreground,"ax",%progbits
 217              		.align	1
 218              		.global	SPI_TFT_ILI9341_set_foreground
 219              		.syntax unified
 220              		.thumb
 221              		.thumb_func
 222              		.fpu fpv5-d16
 224              	SPI_TFT_ILI9341_set_foreground:
 225              	.LVL19:
 226              	.LFB1:
 130:Core/Src/SPI_TFT_ILI9341.c ****     handle->_foreground = colour;
 227              		.loc 1 130 92 is_stmt 1 view -0
 228              		.cfi_startproc
 229              		@ args = 0, pretend = 0, frame = 0
 230              		@ frame_needed = 0, uses_anonymous_args = 0
 231              		@ link register save eliminated.
 131:Core/Src/SPI_TFT_ILI9341.c **** }
 232              		.loc 1 131 5 view .LVU52
 131:Core/Src/SPI_TFT_ILI9341.c **** }
 233              		.loc 1 131 25 is_stmt 0 view .LVU53
 234 0000 C185     		strh	r1, [r0, #46]	@ movhi
 132:Core/Src/SPI_TFT_ILI9341.c **** 
 235              		.loc 1 132 1 view .LVU54
 236 0002 7047     		bx	lr
 237              		.cfi_endproc
 238              	.LFE1:
 240              		.section	.text.SPI_TFT_ILI9341_set_background,"ax",%progbits
 241              		.align	1
 242              		.global	SPI_TFT_ILI9341_set_background
 243              		.syntax unified
 244              		.thumb
 245              		.thumb_func
 246              		.fpu fpv5-d16
 248              	SPI_TFT_ILI9341_set_background:
 249              	.LVL20:
 250              	.LFB2:
 134:Core/Src/SPI_TFT_ILI9341.c ****     handle->_background = colour;
 251              		.loc 1 134 92 is_stmt 1 view -0
 252              		.cfi_startproc
 253              		@ args = 0, pretend = 0, frame = 0
 254              		@ frame_needed = 0, uses_anonymous_args = 0
 255              		@ link register save eliminated.
 135:Core/Src/SPI_TFT_ILI9341.c **** }
 256              		.loc 1 135 5 view .LVU56
 135:Core/Src/SPI_TFT_ILI9341.c **** }
 257              		.loc 1 135 25 is_stmt 0 view .LVU57
 258 0000 0186     		strh	r1, [r0, #48]	@ movhi
 136:Core/Src/SPI_TFT_ILI9341.c **** 
 259              		.loc 1 136 1 view .LVU58
 260 0002 7047     		bx	lr
 261              		.cfi_endproc
 262              	.LFE2:
 264              		.section	.text.SPI_TFT_ILI9341_width,"ax",%progbits
 265              		.align	1
 266              		.global	SPI_TFT_ILI9341_width
ARM GAS  /var/folders/gy/djtlh36967g6qz60tx0ltrsw0000gn/T//ccFocqOw.s 			page 14


 267              		.syntax unified
 268              		.thumb
 269              		.thumb_func
 270              		.fpu fpv5-d16
 272              	SPI_TFT_ILI9341_width:
 273              	.LVL21:
 274              	.LFB3:
 139:Core/Src/SPI_TFT_ILI9341.c ****     if (handle->orientation == 0 || handle->orientation == 2) return 240;
 275              		.loc 1 139 1 is_stmt 1 view -0
 276              		.cfi_startproc
 277              		@ args = 0, pretend = 0, frame = 0
 278              		@ frame_needed = 0, uses_anonymous_args = 0
 279              		@ link register save eliminated.
 140:Core/Src/SPI_TFT_ILI9341.c ****     else return 320;
 280              		.loc 1 140 5 view .LVU60
 140:Core/Src/SPI_TFT_ILI9341.c ****     else return 320;
 281              		.loc 1 140 15 is_stmt 0 view .LVU61
 282 0000 C269     		ldr	r2, [r0, #28]
 140:Core/Src/SPI_TFT_ILI9341.c ****     else return 320;
 283              		.loc 1 140 34 view .LVU62
 284 0002 022A     		cmp	r2, #2
 285 0004 14BF     		ite	ne
 286 0006 0023     		movne	r3, #0
 287 0008 0123     		moveq	r3, #1
 288 000a 002A     		cmp	r2, #0
 289 000c 08BF     		it	eq
 290 000e 0123     		moveq	r3, #1
 140:Core/Src/SPI_TFT_ILI9341.c ****     else return 320;
 291              		.loc 1 140 8 view .LVU63
 292 0010 0BB1     		cbz	r3, .L13
 140:Core/Src/SPI_TFT_ILI9341.c ****     else return 320;
 293              		.loc 1 140 70 view .LVU64
 294 0012 F020     		movs	r0, #240
 295              	.LVL22:
 140:Core/Src/SPI_TFT_ILI9341.c ****     else return 320;
 296              		.loc 1 140 70 view .LVU65
 297 0014 7047     		bx	lr
 298              	.LVL23:
 299              	.L13:
 141:Core/Src/SPI_TFT_ILI9341.c **** }
 300              		.loc 1 141 17 view .LVU66
 301 0016 4FF4A070 		mov	r0, #320
 302              	.LVL24:
 142:Core/Src/SPI_TFT_ILI9341.c **** 
 303              		.loc 1 142 1 view .LVU67
 304 001a 7047     		bx	lr
 305              		.cfi_endproc
 306              	.LFE3:
 308              		.section	.text.SPI_TFT_ILI9341_height,"ax",%progbits
 309              		.align	1
 310              		.global	SPI_TFT_ILI9341_height
 311              		.syntax unified
 312              		.thumb
 313              		.thumb_func
 314              		.fpu fpv5-d16
 316              	SPI_TFT_ILI9341_height:
 317              	.LVL25:
ARM GAS  /var/folders/gy/djtlh36967g6qz60tx0ltrsw0000gn/T//ccFocqOw.s 			page 15


 318              	.LFB4:
 146:Core/Src/SPI_TFT_ILI9341.c ****     if (handle->orientation == 0 || handle->orientation == 2) return 320;
 319              		.loc 1 146 1 is_stmt 1 view -0
 320              		.cfi_startproc
 321              		@ args = 0, pretend = 0, frame = 0
 322              		@ frame_needed = 0, uses_anonymous_args = 0
 323              		@ link register save eliminated.
 147:Core/Src/SPI_TFT_ILI9341.c ****     else return 240;
 324              		.loc 1 147 5 view .LVU69
 147:Core/Src/SPI_TFT_ILI9341.c ****     else return 240;
 325              		.loc 1 147 15 is_stmt 0 view .LVU70
 326 0000 C269     		ldr	r2, [r0, #28]
 147:Core/Src/SPI_TFT_ILI9341.c ****     else return 240;
 327              		.loc 1 147 34 view .LVU71
 328 0002 022A     		cmp	r2, #2
 329 0004 14BF     		ite	ne
 330 0006 0023     		movne	r3, #0
 331 0008 0123     		moveq	r3, #1
 332 000a 002A     		cmp	r2, #0
 333 000c 08BF     		it	eq
 334 000e 0123     		moveq	r3, #1
 147:Core/Src/SPI_TFT_ILI9341.c ****     else return 240;
 335              		.loc 1 147 8 view .LVU72
 336 0010 13B1     		cbz	r3, .L16
 147:Core/Src/SPI_TFT_ILI9341.c ****     else return 240;
 337              		.loc 1 147 70 view .LVU73
 338 0012 4FF4A070 		mov	r0, #320
 339              	.LVL26:
 147:Core/Src/SPI_TFT_ILI9341.c ****     else return 240;
 340              		.loc 1 147 70 view .LVU74
 341 0016 7047     		bx	lr
 342              	.LVL27:
 343              	.L16:
 148:Core/Src/SPI_TFT_ILI9341.c **** }
 344              		.loc 1 148 17 view .LVU75
 345 0018 F020     		movs	r0, #240
 346              	.LVL28:
 149:Core/Src/SPI_TFT_ILI9341.c **** 
 347              		.loc 1 149 1 view .LVU76
 348 001a 7047     		bx	lr
 349              		.cfi_endproc
 350              	.LFE4:
 352              		.section	.text.WindowMax,"ax",%progbits
 353              		.align	1
 354              		.syntax unified
 355              		.thumb
 356              		.thumb_func
 357              		.fpu fpv5-d16
 359              	WindowMax:
 360              	.LVL29:
 361              	.LFB11:
 476:Core/Src/SPI_TFT_ILI9341.c **** 
 477:Core/Src/SPI_TFT_ILI9341.c **** 
 478:Core/Src/SPI_TFT_ILI9341.c **** void WindowMax(SPI_TFT_ILI9341_DriverStruct *handle)
 479:Core/Src/SPI_TFT_ILI9341.c **** {
 362              		.loc 1 479 1 is_stmt 1 view -0
 363              		.cfi_startproc
ARM GAS  /var/folders/gy/djtlh36967g6qz60tx0ltrsw0000gn/T//ccFocqOw.s 			page 16


 364              		@ args = 0, pretend = 0, frame = 0
 365              		@ frame_needed = 0, uses_anonymous_args = 0
 366              		.loc 1 479 1 is_stmt 0 view .LVU78
 367 0000 30B5     		push	{r4, r5, lr}
 368              	.LCFI2:
 369              		.cfi_def_cfa_offset 12
 370              		.cfi_offset 4, -12
 371              		.cfi_offset 5, -8
 372              		.cfi_offset 14, -4
 373 0002 83B0     		sub	sp, sp, #12
 374              	.LCFI3:
 375              		.cfi_def_cfa_offset 24
 376 0004 0446     		mov	r4, r0
 480:Core/Src/SPI_TFT_ILI9341.c ****     window(handle, 0, 0, SPI_TFT_ILI9341_width(handle), SPI_TFT_ILI9341_height(handle));
 377              		.loc 1 480 5 is_stmt 1 view .LVU79
 378              		.loc 1 480 26 is_stmt 0 view .LVU80
 379 0006 FFF7FEFF 		bl	SPI_TFT_ILI9341_width
 380              	.LVL30:
 381              		.loc 1 480 26 view .LVU81
 382 000a 0546     		mov	r5, r0
 383              		.loc 1 480 57 view .LVU82
 384 000c 2046     		mov	r0, r4
 385 000e FFF7FEFF 		bl	SPI_TFT_ILI9341_height
 386              	.LVL31:
 387              		.loc 1 480 5 view .LVU83
 388 0012 0090     		str	r0, [sp]
 389 0014 2B46     		mov	r3, r5
 390 0016 0022     		movs	r2, #0
 391 0018 1146     		mov	r1, r2
 392 001a 2046     		mov	r0, r4
 393 001c FFF7FEFF 		bl	window
 394              	.LVL32:
 481:Core/Src/SPI_TFT_ILI9341.c **** }
 395              		.loc 1 481 1 view .LVU84
 396 0020 03B0     		add	sp, sp, #12
 397              	.LCFI4:
 398              		.cfi_def_cfa_offset 12
 399              		@ sp needed
 400 0022 30BD     		pop	{r4, r5, pc}
 401              		.loc 1 481 1 view .LVU85
 402              		.cfi_endproc
 403              	.LFE11:
 405              		.section	.text.tft_reset,"ax",%progbits
 406              		.align	1
 407              		.syntax unified
 408              		.thumb
 409              		.thumb_func
 410              		.fpu fpv5-d16
 412              	tft_reset:
 413              	.LVL33:
 414              	.LFB8:
 247:Core/Src/SPI_TFT_ILI9341.c ****     handle->_cs(1);                           // cs high
 415              		.loc 1 247 1 is_stmt 1 view -0
 416              		.cfi_startproc
 417              		@ args = 0, pretend = 0, frame = 0
 418              		@ frame_needed = 0, uses_anonymous_args = 0
 247:Core/Src/SPI_TFT_ILI9341.c ****     handle->_cs(1);                           // cs high
ARM GAS  /var/folders/gy/djtlh36967g6qz60tx0ltrsw0000gn/T//ccFocqOw.s 			page 17


 419              		.loc 1 247 1 is_stmt 0 view .LVU87
 420 0000 2DE9F84F 		push	{r3, r4, r5, r6, r7, r8, r9, r10, fp, lr}
 421              	.LCFI5:
 422              		.cfi_def_cfa_offset 40
 423              		.cfi_offset 3, -40
 424              		.cfi_offset 4, -36
 425              		.cfi_offset 5, -32
 426              		.cfi_offset 6, -28
 427              		.cfi_offset 7, -24
 428              		.cfi_offset 8, -20
 429              		.cfi_offset 9, -16
 430              		.cfi_offset 10, -12
 431              		.cfi_offset 11, -8
 432              		.cfi_offset 14, -4
 433 0004 0546     		mov	r5, r0
 248:Core/Src/SPI_TFT_ILI9341.c ****     handle->_dc(1);                           // dc high 
 434              		.loc 1 248 5 is_stmt 1 view .LVU88
 248:Core/Src/SPI_TFT_ILI9341.c ****     handle->_dc(1);                           // dc high 
 435              		.loc 1 248 11 is_stmt 0 view .LVU89
 436 0006 4368     		ldr	r3, [r0, #4]
 248:Core/Src/SPI_TFT_ILI9341.c ****     handle->_dc(1);                           // dc high 
 437              		.loc 1 248 5 view .LVU90
 438 0008 0120     		movs	r0, #1
 439              	.LVL34:
 248:Core/Src/SPI_TFT_ILI9341.c ****     handle->_dc(1);                           // dc high 
 440              		.loc 1 248 5 view .LVU91
 441 000a 9847     		blx	r3
 442              	.LVL35:
 249:Core/Src/SPI_TFT_ILI9341.c ****     handle->_reset(0);                        // display reset
 443              		.loc 1 249 5 is_stmt 1 view .LVU92
 249:Core/Src/SPI_TFT_ILI9341.c ****     handle->_reset(0);                        // display reset
 444              		.loc 1 249 11 is_stmt 0 view .LVU93
 445 000c EB68     		ldr	r3, [r5, #12]
 249:Core/Src/SPI_TFT_ILI9341.c ****     handle->_reset(0);                        // display reset
 446              		.loc 1 249 5 view .LVU94
 447 000e 0120     		movs	r0, #1
 448 0010 9847     		blx	r3
 449              	.LVL36:
 250:Core/Src/SPI_TFT_ILI9341.c **** 
 450              		.loc 1 250 5 is_stmt 1 view .LVU95
 250:Core/Src/SPI_TFT_ILI9341.c **** 
 451              		.loc 1 250 11 is_stmt 0 view .LVU96
 452 0012 AB68     		ldr	r3, [r5, #8]
 250:Core/Src/SPI_TFT_ILI9341.c **** 
 453              		.loc 1 250 5 view .LVU97
 454 0014 0020     		movs	r0, #0
 455 0016 9847     		blx	r3
 456              	.LVL37:
 253:Core/Src/SPI_TFT_ILI9341.c ****     handle->_reset(1);                       // end hardware reset
 457              		.loc 1 253 5 is_stmt 1 view .LVU98
 253:Core/Src/SPI_TFT_ILI9341.c ****     handle->_reset(1);                       // end hardware reset
 458              		.loc 1 253 11 is_stmt 0 view .LVU99
 459 0018 2B69     		ldr	r3, [r5, #16]
 253:Core/Src/SPI_TFT_ILI9341.c ****     handle->_reset(1);                       // end hardware reset
 460              		.loc 1 253 5 view .LVU100
 461 001a 0120     		movs	r0, #1
 462 001c 9847     		blx	r3
ARM GAS  /var/folders/gy/djtlh36967g6qz60tx0ltrsw0000gn/T//ccFocqOw.s 			page 18


 463              	.LVL38:
 254:Core/Src/SPI_TFT_ILI9341.c ****     handle->_waitms(5);
 464              		.loc 1 254 5 is_stmt 1 view .LVU101
 254:Core/Src/SPI_TFT_ILI9341.c ****     handle->_waitms(5);
 465              		.loc 1 254 11 is_stmt 0 view .LVU102
 466 001e AB68     		ldr	r3, [r5, #8]
 254:Core/Src/SPI_TFT_ILI9341.c ****     handle->_waitms(5);
 467              		.loc 1 254 5 view .LVU103
 468 0020 0120     		movs	r0, #1
 469 0022 9847     		blx	r3
 470              	.LVL39:
 255:Core/Src/SPI_TFT_ILI9341.c **** 
 471              		.loc 1 255 5 is_stmt 1 view .LVU104
 255:Core/Src/SPI_TFT_ILI9341.c **** 
 472              		.loc 1 255 11 is_stmt 0 view .LVU105
 473 0024 2B69     		ldr	r3, [r5, #16]
 255:Core/Src/SPI_TFT_ILI9341.c **** 
 474              		.loc 1 255 5 view .LVU106
 475 0026 0520     		movs	r0, #5
 476 0028 9847     		blx	r3
 477              	.LVL40:
 257:Core/Src/SPI_TFT_ILI9341.c ****     handle->_waitms(5);
 478              		.loc 1 257 5 is_stmt 1 view .LVU107
 479 002a 0121     		movs	r1, #1
 480 002c 2846     		mov	r0, r5
 481 002e FFF7FEFF 		bl	wr_cmd
 482              	.LVL41:
 258:Core/Src/SPI_TFT_ILI9341.c ****     wr_cmd(handle,0x28);                     // display off  
 483              		.loc 1 258 5 view .LVU108
 258:Core/Src/SPI_TFT_ILI9341.c ****     wr_cmd(handle,0x28);                     // display off  
 484              		.loc 1 258 11 is_stmt 0 view .LVU109
 485 0032 2B69     		ldr	r3, [r5, #16]
 258:Core/Src/SPI_TFT_ILI9341.c ****     wr_cmd(handle,0x28);                     // display off  
 486              		.loc 1 258 5 view .LVU110
 487 0034 0520     		movs	r0, #5
 488 0036 9847     		blx	r3
 489              	.LVL42:
 259:Core/Src/SPI_TFT_ILI9341.c **** 
 490              		.loc 1 259 5 is_stmt 1 view .LVU111
 491 0038 2821     		movs	r1, #40
 492 003a 2846     		mov	r0, r5
 493 003c FFF7FEFF 		bl	wr_cmd
 494              	.LVL43:
 262:Core/Src/SPI_TFT_ILI9341.c ****     INIBUF();
 495              		.loc 1 262 5 view .LVU112
 496 0040 CF21     		movs	r1, #207
 497 0042 2846     		mov	r0, r5
 498 0044 FFF7FEFF 		bl	wr_cmd
 499              	.LVL44:
 263:Core/Src/SPI_TFT_ILI9341.c ****     WBUF(0x00);
 500              		.loc 1 263 5 view .LVU113
 264:Core/Src/SPI_TFT_ILI9341.c ****     WBUF(0x83);
 501              		.loc 1 264 5 view .LVU114
 502 0048 C74C     		ldr	r4, .L21
 503 004a 4FF00008 		mov	r8, #0
 504 004e 84F80080 		strb	r8, [r4]
 265:Core/Src/SPI_TFT_ILI9341.c ****     WBUF(0x30);
ARM GAS  /var/folders/gy/djtlh36967g6qz60tx0ltrsw0000gn/T//ccFocqOw.s 			page 19


 505              		.loc 1 265 5 view .LVU115
 506 0052 8323     		movs	r3, #131
 507 0054 6370     		strb	r3, [r4, #1]
 266:Core/Src/SPI_TFT_ILI9341.c ****     handle->_spi(_buf, _bufi);
 508              		.loc 1 266 5 view .LVU116
 509 0056 C54F     		ldr	r7, .L21+4
 510 0058 4FF00309 		mov	r9, #3
 511 005c C7F80090 		str	r9, [r7]
 512 0060 3023     		movs	r3, #48
 513 0062 A370     		strb	r3, [r4, #2]
 267:Core/Src/SPI_TFT_ILI9341.c ****     handle->_cs(1);
 514              		.loc 1 267 5 view .LVU117
 267:Core/Src/SPI_TFT_ILI9341.c ****     handle->_cs(1);
 515              		.loc 1 267 11 is_stmt 0 view .LVU118
 516 0064 2B68     		ldr	r3, [r5]
 267:Core/Src/SPI_TFT_ILI9341.c ****     handle->_cs(1);
 517              		.loc 1 267 5 view .LVU119
 518 0066 4946     		mov	r1, r9
 519 0068 2046     		mov	r0, r4
 520 006a 9847     		blx	r3
 521              	.LVL45:
 268:Core/Src/SPI_TFT_ILI9341.c ****     
 522              		.loc 1 268 5 is_stmt 1 view .LVU120
 268:Core/Src/SPI_TFT_ILI9341.c ****     
 523              		.loc 1 268 11 is_stmt 0 view .LVU121
 524 006c 6B68     		ldr	r3, [r5, #4]
 268:Core/Src/SPI_TFT_ILI9341.c ****     
 525              		.loc 1 268 5 view .LVU122
 526 006e 0120     		movs	r0, #1
 527 0070 9847     		blx	r3
 528              	.LVL46:
 270:Core/Src/SPI_TFT_ILI9341.c ****     INIBUF();
 529              		.loc 1 270 5 is_stmt 1 view .LVU123
 530 0072 ED21     		movs	r1, #237
 531 0074 2846     		mov	r0, r5
 532 0076 FFF7FEFF 		bl	wr_cmd
 533              	.LVL47:
 271:Core/Src/SPI_TFT_ILI9341.c ****     WBUF(0x64);
 534              		.loc 1 271 5 view .LVU124
 272:Core/Src/SPI_TFT_ILI9341.c ****     WBUF(0x03);
 535              		.loc 1 272 5 view .LVU125
 536 007a 4FF06403 		mov	r3, #100
 537 007e 2370     		strb	r3, [r4]
 273:Core/Src/SPI_TFT_ILI9341.c ****     WBUF(0x12);
 538              		.loc 1 273 5 view .LVU126
 539 0080 84F80190 		strb	r9, [r4, #1]
 274:Core/Src/SPI_TFT_ILI9341.c ****     WBUF(0x81);
 540              		.loc 1 274 5 view .LVU127
 541 0084 1223     		movs	r3, #18
 542 0086 A370     		strb	r3, [r4, #2]
 275:Core/Src/SPI_TFT_ILI9341.c ****     handle->_spi(_buf, _bufi);
 543              		.loc 1 275 5 view .LVU128
 544 0088 0423     		movs	r3, #4
 545 008a 3B60     		str	r3, [r7]
 546 008c 8123     		movs	r3, #129
 547 008e E370     		strb	r3, [r4, #3]
 276:Core/Src/SPI_TFT_ILI9341.c ****     handle->_cs(1);
ARM GAS  /var/folders/gy/djtlh36967g6qz60tx0ltrsw0000gn/T//ccFocqOw.s 			page 20


 548              		.loc 1 276 5 view .LVU129
 276:Core/Src/SPI_TFT_ILI9341.c ****     handle->_cs(1);
 549              		.loc 1 276 11 is_stmt 0 view .LVU130
 550 0090 2B68     		ldr	r3, [r5]
 276:Core/Src/SPI_TFT_ILI9341.c ****     handle->_cs(1);
 551              		.loc 1 276 5 view .LVU131
 552 0092 0421     		movs	r1, #4
 553 0094 2046     		mov	r0, r4
 554 0096 9847     		blx	r3
 555              	.LVL48:
 277:Core/Src/SPI_TFT_ILI9341.c ****     
 556              		.loc 1 277 5 is_stmt 1 view .LVU132
 277:Core/Src/SPI_TFT_ILI9341.c ****     
 557              		.loc 1 277 11 is_stmt 0 view .LVU133
 558 0098 6B68     		ldr	r3, [r5, #4]
 277:Core/Src/SPI_TFT_ILI9341.c ****     
 559              		.loc 1 277 5 view .LVU134
 560 009a 0120     		movs	r0, #1
 561 009c 9847     		blx	r3
 562              	.LVL49:
 279:Core/Src/SPI_TFT_ILI9341.c ****     INIBUF();
 563              		.loc 1 279 5 is_stmt 1 view .LVU135
 564 009e E821     		movs	r1, #232
 565 00a0 2846     		mov	r0, r5
 566 00a2 FFF7FEFF 		bl	wr_cmd
 567              	.LVL50:
 280:Core/Src/SPI_TFT_ILI9341.c ****     WBUF(0x85);
 568              		.loc 1 280 5 view .LVU136
 281:Core/Src/SPI_TFT_ILI9341.c ****     WBUF(0x01);
 569              		.loc 1 281 5 view .LVU137
 570 00a6 8523     		movs	r3, #133
 571 00a8 2370     		strb	r3, [r4]
 282:Core/Src/SPI_TFT_ILI9341.c ****     WBUF(0x79);
 572              		.loc 1 282 5 view .LVU138
 573 00aa 0126     		movs	r6, #1
 574 00ac 6670     		strb	r6, [r4, #1]
 283:Core/Src/SPI_TFT_ILI9341.c ****     handle->_spi(_buf, _bufi);
 575              		.loc 1 283 5 view .LVU139
 576 00ae C7F80090 		str	r9, [r7]
 577 00b2 7923     		movs	r3, #121
 578 00b4 A370     		strb	r3, [r4, #2]
 284:Core/Src/SPI_TFT_ILI9341.c ****     handle->_cs(1);
 579              		.loc 1 284 5 view .LVU140
 284:Core/Src/SPI_TFT_ILI9341.c ****     handle->_cs(1);
 580              		.loc 1 284 11 is_stmt 0 view .LVU141
 581 00b6 2B68     		ldr	r3, [r5]
 284:Core/Src/SPI_TFT_ILI9341.c ****     handle->_cs(1);
 582              		.loc 1 284 5 view .LVU142
 583 00b8 4946     		mov	r1, r9
 584 00ba 2046     		mov	r0, r4
 585 00bc 9847     		blx	r3
 586              	.LVL51:
 285:Core/Src/SPI_TFT_ILI9341.c ****     
 587              		.loc 1 285 5 is_stmt 1 view .LVU143
 285:Core/Src/SPI_TFT_ILI9341.c ****     
 588              		.loc 1 285 11 is_stmt 0 view .LVU144
 589 00be 6B68     		ldr	r3, [r5, #4]
ARM GAS  /var/folders/gy/djtlh36967g6qz60tx0ltrsw0000gn/T//ccFocqOw.s 			page 21


 285:Core/Src/SPI_TFT_ILI9341.c ****     
 590              		.loc 1 285 5 view .LVU145
 591 00c0 3046     		mov	r0, r6
 592 00c2 9847     		blx	r3
 593              	.LVL52:
 287:Core/Src/SPI_TFT_ILI9341.c ****     INIBUF();
 594              		.loc 1 287 5 is_stmt 1 view .LVU146
 595 00c4 CB21     		movs	r1, #203
 596 00c6 2846     		mov	r0, r5
 597 00c8 FFF7FEFF 		bl	wr_cmd
 598              	.LVL53:
 288:Core/Src/SPI_TFT_ILI9341.c ****     WBUF(0x39);
 599              		.loc 1 288 5 view .LVU147
 289:Core/Src/SPI_TFT_ILI9341.c ****     WBUF(0x2C);
 600              		.loc 1 289 5 view .LVU148
 601 00cc 3923     		movs	r3, #57
 602 00ce 2370     		strb	r3, [r4]
 290:Core/Src/SPI_TFT_ILI9341.c ****     WBUF(0x00);
 603              		.loc 1 290 5 view .LVU149
 604 00d0 2C23     		movs	r3, #44
 605 00d2 6370     		strb	r3, [r4, #1]
 291:Core/Src/SPI_TFT_ILI9341.c ****     WBUF(0x34);
 606              		.loc 1 291 5 view .LVU150
 607 00d4 84F80280 		strb	r8, [r4, #2]
 292:Core/Src/SPI_TFT_ILI9341.c ****     WBUF(0x02);
 608              		.loc 1 292 5 view .LVU151
 609 00d8 3423     		movs	r3, #52
 610 00da E370     		strb	r3, [r4, #3]
 293:Core/Src/SPI_TFT_ILI9341.c ****     handle->_spi(_buf, _bufi);
 611              		.loc 1 293 5 view .LVU152
 612 00dc 4FF0050B 		mov	fp, #5
 613 00e0 C7F800B0 		str	fp, [r7]
 614 00e4 4FF00209 		mov	r9, #2
 615 00e8 84F80490 		strb	r9, [r4, #4]
 294:Core/Src/SPI_TFT_ILI9341.c ****     handle->_cs(1);
 616              		.loc 1 294 5 view .LVU153
 294:Core/Src/SPI_TFT_ILI9341.c ****     handle->_cs(1);
 617              		.loc 1 294 11 is_stmt 0 view .LVU154
 618 00ec 2B68     		ldr	r3, [r5]
 294:Core/Src/SPI_TFT_ILI9341.c ****     handle->_cs(1);
 619              		.loc 1 294 5 view .LVU155
 620 00ee 5946     		mov	r1, fp
 621 00f0 2046     		mov	r0, r4
 622 00f2 9847     		blx	r3
 623              	.LVL54:
 295:Core/Src/SPI_TFT_ILI9341.c **** 
 624              		.loc 1 295 5 is_stmt 1 view .LVU156
 295:Core/Src/SPI_TFT_ILI9341.c **** 
 625              		.loc 1 295 11 is_stmt 0 view .LVU157
 626 00f4 6B68     		ldr	r3, [r5, #4]
 295:Core/Src/SPI_TFT_ILI9341.c **** 
 627              		.loc 1 295 5 view .LVU158
 628 00f6 3046     		mov	r0, r6
 629 00f8 9847     		blx	r3
 630              	.LVL55:
 297:Core/Src/SPI_TFT_ILI9341.c ****     _buf[0] = 0x20;
 631              		.loc 1 297 5 is_stmt 1 view .LVU159
ARM GAS  /var/folders/gy/djtlh36967g6qz60tx0ltrsw0000gn/T//ccFocqOw.s 			page 22


 632 00fa F721     		movs	r1, #247
 633 00fc 2846     		mov	r0, r5
 634 00fe FFF7FEFF 		bl	wr_cmd
 635              	.LVL56:
 298:Core/Src/SPI_TFT_ILI9341.c ****     handle->_spi(_buf, 1);
 636              		.loc 1 298 5 view .LVU160
 298:Core/Src/SPI_TFT_ILI9341.c ****     handle->_spi(_buf, 1);
 637              		.loc 1 298 13 is_stmt 0 view .LVU161
 638 0102 2023     		movs	r3, #32
 639 0104 2370     		strb	r3, [r4]
 299:Core/Src/SPI_TFT_ILI9341.c ****     handle->_cs(1);
 640              		.loc 1 299 5 is_stmt 1 view .LVU162
 299:Core/Src/SPI_TFT_ILI9341.c ****     handle->_cs(1);
 641              		.loc 1 299 11 is_stmt 0 view .LVU163
 642 0106 2B68     		ldr	r3, [r5]
 299:Core/Src/SPI_TFT_ILI9341.c ****     handle->_cs(1);
 643              		.loc 1 299 5 view .LVU164
 644 0108 3146     		mov	r1, r6
 645 010a 2046     		mov	r0, r4
 646 010c 9847     		blx	r3
 647              	.LVL57:
 300:Core/Src/SPI_TFT_ILI9341.c **** 
 648              		.loc 1 300 5 is_stmt 1 view .LVU165
 300:Core/Src/SPI_TFT_ILI9341.c **** 
 649              		.loc 1 300 11 is_stmt 0 view .LVU166
 650 010e 6B68     		ldr	r3, [r5, #4]
 300:Core/Src/SPI_TFT_ILI9341.c **** 
 651              		.loc 1 300 5 view .LVU167
 652 0110 3046     		mov	r0, r6
 653 0112 9847     		blx	r3
 654              	.LVL58:
 302:Core/Src/SPI_TFT_ILI9341.c ****     INIBUF();
 655              		.loc 1 302 5 is_stmt 1 view .LVU168
 656 0114 EA21     		movs	r1, #234
 657 0116 2846     		mov	r0, r5
 658 0118 FFF7FEFF 		bl	wr_cmd
 659              	.LVL59:
 303:Core/Src/SPI_TFT_ILI9341.c ****     WBUF(0x00);
 660              		.loc 1 303 5 view .LVU169
 304:Core/Src/SPI_TFT_ILI9341.c ****     WBUF(0x00);
 661              		.loc 1 304 5 view .LVU170
 662 011c 84F80080 		strb	r8, [r4]
 305:Core/Src/SPI_TFT_ILI9341.c ****     handle->_spi(_buf, _bufi);
 663              		.loc 1 305 5 view .LVU171
 664 0120 C7F80090 		str	r9, [r7]
 665 0124 84F80180 		strb	r8, [r4, #1]
 306:Core/Src/SPI_TFT_ILI9341.c ****     handle->_cs(1);
 666              		.loc 1 306 5 view .LVU172
 306:Core/Src/SPI_TFT_ILI9341.c ****     handle->_cs(1);
 667              		.loc 1 306 11 is_stmt 0 view .LVU173
 668 0128 2B68     		ldr	r3, [r5]
 306:Core/Src/SPI_TFT_ILI9341.c ****     handle->_cs(1);
 669              		.loc 1 306 5 view .LVU174
 670 012a 4946     		mov	r1, r9
 671 012c 2046     		mov	r0, r4
 672 012e 9847     		blx	r3
 673              	.LVL60:
ARM GAS  /var/folders/gy/djtlh36967g6qz60tx0ltrsw0000gn/T//ccFocqOw.s 			page 23


 307:Core/Src/SPI_TFT_ILI9341.c ****     
 674              		.loc 1 307 5 is_stmt 1 view .LVU175
 307:Core/Src/SPI_TFT_ILI9341.c ****     
 675              		.loc 1 307 11 is_stmt 0 view .LVU176
 676 0130 6B68     		ldr	r3, [r5, #4]
 307:Core/Src/SPI_TFT_ILI9341.c ****     
 677              		.loc 1 307 5 view .LVU177
 678 0132 3046     		mov	r0, r6
 679 0134 9847     		blx	r3
 680              	.LVL61:
 309:Core/Src/SPI_TFT_ILI9341.c ****     _buf[0] = 0x26;
 681              		.loc 1 309 5 is_stmt 1 view .LVU178
 682 0136 C021     		movs	r1, #192
 683 0138 2846     		mov	r0, r5
 684 013a FFF7FEFF 		bl	wr_cmd
 685              	.LVL62:
 310:Core/Src/SPI_TFT_ILI9341.c ****     handle->_spi(_buf, 1);
 686              		.loc 1 310 5 view .LVU179
 310:Core/Src/SPI_TFT_ILI9341.c ****     handle->_spi(_buf, 1);
 687              		.loc 1 310 13 is_stmt 0 view .LVU180
 688 013e 4FF0260A 		mov	r10, #38
 689 0142 84F800A0 		strb	r10, [r4]
 311:Core/Src/SPI_TFT_ILI9341.c ****     handle->_cs(1);
 690              		.loc 1 311 5 is_stmt 1 view .LVU181
 311:Core/Src/SPI_TFT_ILI9341.c ****     handle->_cs(1);
 691              		.loc 1 311 11 is_stmt 0 view .LVU182
 692 0146 2B68     		ldr	r3, [r5]
 311:Core/Src/SPI_TFT_ILI9341.c ****     handle->_cs(1);
 693              		.loc 1 311 5 view .LVU183
 694 0148 3146     		mov	r1, r6
 695 014a 2046     		mov	r0, r4
 696 014c 9847     		blx	r3
 697              	.LVL63:
 312:Core/Src/SPI_TFT_ILI9341.c ****  
 698              		.loc 1 312 5 is_stmt 1 view .LVU184
 312:Core/Src/SPI_TFT_ILI9341.c ****  
 699              		.loc 1 312 11 is_stmt 0 view .LVU185
 700 014e 6B68     		ldr	r3, [r5, #4]
 312:Core/Src/SPI_TFT_ILI9341.c ****  
 701              		.loc 1 312 5 view .LVU186
 702 0150 3046     		mov	r0, r6
 703 0152 9847     		blx	r3
 704              	.LVL64:
 314:Core/Src/SPI_TFT_ILI9341.c ****     _buf[0] = 0x11;
 705              		.loc 1 314 5 is_stmt 1 view .LVU187
 706 0154 C121     		movs	r1, #193
 707 0156 2846     		mov	r0, r5
 708 0158 FFF7FEFF 		bl	wr_cmd
 709              	.LVL65:
 315:Core/Src/SPI_TFT_ILI9341.c ****     handle->_spi(_buf, 1);
 710              		.loc 1 315 5 view .LVU188
 315:Core/Src/SPI_TFT_ILI9341.c ****     handle->_spi(_buf, 1);
 711              		.loc 1 315 13 is_stmt 0 view .LVU189
 712 015c 4FF01103 		mov	r3, #17
 713 0160 2370     		strb	r3, [r4]
 316:Core/Src/SPI_TFT_ILI9341.c ****     handle->_cs(1);
 714              		.loc 1 316 5 is_stmt 1 view .LVU190
ARM GAS  /var/folders/gy/djtlh36967g6qz60tx0ltrsw0000gn/T//ccFocqOw.s 			page 24


 316:Core/Src/SPI_TFT_ILI9341.c ****     handle->_cs(1);
 715              		.loc 1 316 11 is_stmt 0 view .LVU191
 716 0162 2B68     		ldr	r3, [r5]
 316:Core/Src/SPI_TFT_ILI9341.c ****     handle->_cs(1);
 717              		.loc 1 316 5 view .LVU192
 718 0164 3146     		mov	r1, r6
 719 0166 2046     		mov	r0, r4
 720 0168 9847     		blx	r3
 721              	.LVL66:
 317:Core/Src/SPI_TFT_ILI9341.c ****     
 722              		.loc 1 317 5 is_stmt 1 view .LVU193
 317:Core/Src/SPI_TFT_ILI9341.c ****     
 723              		.loc 1 317 11 is_stmt 0 view .LVU194
 724 016a 6B68     		ldr	r3, [r5, #4]
 317:Core/Src/SPI_TFT_ILI9341.c ****     
 725              		.loc 1 317 5 view .LVU195
 726 016c 3046     		mov	r0, r6
 727 016e 9847     		blx	r3
 728              	.LVL67:
 319:Core/Src/SPI_TFT_ILI9341.c ****     INIBUF();
 729              		.loc 1 319 5 is_stmt 1 view .LVU196
 730 0170 C521     		movs	r1, #197
 731 0172 2846     		mov	r0, r5
 732 0174 FFF7FEFF 		bl	wr_cmd
 733              	.LVL68:
 320:Core/Src/SPI_TFT_ILI9341.c ****     WBUF(0x35);
 734              		.loc 1 320 5 view .LVU197
 321:Core/Src/SPI_TFT_ILI9341.c ****     WBUF(0x3E);
 735              		.loc 1 321 5 view .LVU198
 736 0178 3523     		movs	r3, #53
 737 017a 2370     		strb	r3, [r4]
 322:Core/Src/SPI_TFT_ILI9341.c ****     handle->_spi(_buf, _bufi);
 738              		.loc 1 322 5 view .LVU199
 739 017c C7F80090 		str	r9, [r7]
 740 0180 3E23     		movs	r3, #62
 741 0182 6370     		strb	r3, [r4, #1]
 323:Core/Src/SPI_TFT_ILI9341.c ****     handle->_cs(1);
 742              		.loc 1 323 5 view .LVU200
 323:Core/Src/SPI_TFT_ILI9341.c ****     handle->_cs(1);
 743              		.loc 1 323 11 is_stmt 0 view .LVU201
 744 0184 2B68     		ldr	r3, [r5]
 323:Core/Src/SPI_TFT_ILI9341.c ****     handle->_cs(1);
 745              		.loc 1 323 5 view .LVU202
 746 0186 4946     		mov	r1, r9
 747 0188 2046     		mov	r0, r4
 748 018a 9847     		blx	r3
 749              	.LVL69:
 324:Core/Src/SPI_TFT_ILI9341.c ****     
 750              		.loc 1 324 5 is_stmt 1 view .LVU203
 324:Core/Src/SPI_TFT_ILI9341.c ****     
 751              		.loc 1 324 11 is_stmt 0 view .LVU204
 752 018c 6B68     		ldr	r3, [r5, #4]
 324:Core/Src/SPI_TFT_ILI9341.c ****     
 753              		.loc 1 324 5 view .LVU205
 754 018e 3046     		mov	r0, r6
 755 0190 9847     		blx	r3
 756              	.LVL70:
ARM GAS  /var/folders/gy/djtlh36967g6qz60tx0ltrsw0000gn/T//ccFocqOw.s 			page 25


 326:Core/Src/SPI_TFT_ILI9341.c ****     _buf[0] = 0xBE;
 757              		.loc 1 326 5 is_stmt 1 view .LVU206
 758 0192 C721     		movs	r1, #199
 759 0194 2846     		mov	r0, r5
 760 0196 FFF7FEFF 		bl	wr_cmd
 761              	.LVL71:
 327:Core/Src/SPI_TFT_ILI9341.c ****     handle->_spi(_buf, 1);
 762              		.loc 1 327 5 view .LVU207
 327:Core/Src/SPI_TFT_ILI9341.c ****     handle->_spi(_buf, 1);
 763              		.loc 1 327 13 is_stmt 0 view .LVU208
 764 019a BE23     		movs	r3, #190
 765 019c 2370     		strb	r3, [r4]
 328:Core/Src/SPI_TFT_ILI9341.c ****     handle->_cs(1); 
 766              		.loc 1 328 5 is_stmt 1 view .LVU209
 328:Core/Src/SPI_TFT_ILI9341.c ****     handle->_cs(1); 
 767              		.loc 1 328 11 is_stmt 0 view .LVU210
 768 019e 2B68     		ldr	r3, [r5]
 328:Core/Src/SPI_TFT_ILI9341.c ****     handle->_cs(1); 
 769              		.loc 1 328 5 view .LVU211
 770 01a0 3146     		mov	r1, r6
 771 01a2 2046     		mov	r0, r4
 772 01a4 9847     		blx	r3
 773              	.LVL72:
 329:Core/Src/SPI_TFT_ILI9341.c ****     
 774              		.loc 1 329 5 is_stmt 1 view .LVU212
 329:Core/Src/SPI_TFT_ILI9341.c ****     
 775              		.loc 1 329 11 is_stmt 0 view .LVU213
 776 01a6 6B68     		ldr	r3, [r5, #4]
 329:Core/Src/SPI_TFT_ILI9341.c ****     
 777              		.loc 1 329 5 view .LVU214
 778 01a8 3046     		mov	r0, r6
 779 01aa 9847     		blx	r3
 780              	.LVL73:
 331:Core/Src/SPI_TFT_ILI9341.c ****     _buf[0] = 0x48;
 781              		.loc 1 331 5 is_stmt 1 view .LVU215
 782 01ac 3621     		movs	r1, #54
 783 01ae 2846     		mov	r0, r5
 784 01b0 FFF7FEFF 		bl	wr_cmd
 785              	.LVL74:
 332:Core/Src/SPI_TFT_ILI9341.c ****     handle->_spi(_buf, 1);
 786              		.loc 1 332 5 view .LVU216
 332:Core/Src/SPI_TFT_ILI9341.c ****     handle->_spi(_buf, 1);
 787              		.loc 1 332 13 is_stmt 0 view .LVU217
 788 01b4 4823     		movs	r3, #72
 789 01b6 2370     		strb	r3, [r4]
 333:Core/Src/SPI_TFT_ILI9341.c ****     handle->_cs(1); 
 790              		.loc 1 333 5 is_stmt 1 view .LVU218
 333:Core/Src/SPI_TFT_ILI9341.c ****     handle->_cs(1); 
 791              		.loc 1 333 11 is_stmt 0 view .LVU219
 792 01b8 2B68     		ldr	r3, [r5]
 333:Core/Src/SPI_TFT_ILI9341.c ****     handle->_cs(1); 
 793              		.loc 1 333 5 view .LVU220
 794 01ba 3146     		mov	r1, r6
 795 01bc 2046     		mov	r0, r4
 796 01be 9847     		blx	r3
 797              	.LVL75:
 334:Core/Src/SPI_TFT_ILI9341.c ****     
ARM GAS  /var/folders/gy/djtlh36967g6qz60tx0ltrsw0000gn/T//ccFocqOw.s 			page 26


 798              		.loc 1 334 5 is_stmt 1 view .LVU221
 334:Core/Src/SPI_TFT_ILI9341.c ****     
 799              		.loc 1 334 11 is_stmt 0 view .LVU222
 800 01c0 6B68     		ldr	r3, [r5, #4]
 334:Core/Src/SPI_TFT_ILI9341.c ****     
 801              		.loc 1 334 5 view .LVU223
 802 01c2 3046     		mov	r0, r6
 803 01c4 9847     		blx	r3
 804              	.LVL76:
 336:Core/Src/SPI_TFT_ILI9341.c ****     _buf[0] = 0x55;
 805              		.loc 1 336 5 is_stmt 1 view .LVU224
 806 01c6 3A21     		movs	r1, #58
 807 01c8 2846     		mov	r0, r5
 808 01ca FFF7FEFF 		bl	wr_cmd
 809              	.LVL77:
 337:Core/Src/SPI_TFT_ILI9341.c ****     handle->_spi(_buf, 1);
 810              		.loc 1 337 5 view .LVU225
 337:Core/Src/SPI_TFT_ILI9341.c ****     handle->_spi(_buf, 1);
 811              		.loc 1 337 13 is_stmt 0 view .LVU226
 812 01ce 5523     		movs	r3, #85
 813 01d0 2370     		strb	r3, [r4]
 338:Core/Src/SPI_TFT_ILI9341.c ****     handle->_cs(1);
 814              		.loc 1 338 5 is_stmt 1 view .LVU227
 338:Core/Src/SPI_TFT_ILI9341.c ****     handle->_cs(1);
 815              		.loc 1 338 11 is_stmt 0 view .LVU228
 816 01d2 2B68     		ldr	r3, [r5]
 338:Core/Src/SPI_TFT_ILI9341.c ****     handle->_cs(1);
 817              		.loc 1 338 5 view .LVU229
 818 01d4 3146     		mov	r1, r6
 819 01d6 2046     		mov	r0, r4
 820 01d8 9847     		blx	r3
 821              	.LVL78:
 339:Core/Src/SPI_TFT_ILI9341.c ****     
 822              		.loc 1 339 5 is_stmt 1 view .LVU230
 339:Core/Src/SPI_TFT_ILI9341.c ****     
 823              		.loc 1 339 11 is_stmt 0 view .LVU231
 824 01da 6B68     		ldr	r3, [r5, #4]
 339:Core/Src/SPI_TFT_ILI9341.c ****     
 825              		.loc 1 339 5 view .LVU232
 826 01dc 3046     		mov	r0, r6
 827 01de 9847     		blx	r3
 828              	.LVL79:
 341:Core/Src/SPI_TFT_ILI9341.c ****     INIBUF();
 829              		.loc 1 341 5 is_stmt 1 view .LVU233
 830 01e0 B121     		movs	r1, #177
 831 01e2 2846     		mov	r0, r5
 832 01e4 FFF7FEFF 		bl	wr_cmd
 833              	.LVL80:
 342:Core/Src/SPI_TFT_ILI9341.c ****     WBUF(0x00);
 834              		.loc 1 342 5 view .LVU234
 343:Core/Src/SPI_TFT_ILI9341.c ****     WBUF(0x1B);               
 835              		.loc 1 343 5 view .LVU235
 836 01e8 84F80080 		strb	r8, [r4]
 344:Core/Src/SPI_TFT_ILI9341.c ****     handle->_spi(_buf, _bufi);
 837              		.loc 1 344 5 view .LVU236
 838 01ec C7F80090 		str	r9, [r7]
 839 01f0 1B23     		movs	r3, #27
ARM GAS  /var/folders/gy/djtlh36967g6qz60tx0ltrsw0000gn/T//ccFocqOw.s 			page 27


 840 01f2 6370     		strb	r3, [r4, #1]
 345:Core/Src/SPI_TFT_ILI9341.c ****     handle->_cs(1);
 841              		.loc 1 345 5 view .LVU237
 345:Core/Src/SPI_TFT_ILI9341.c ****     handle->_cs(1);
 842              		.loc 1 345 11 is_stmt 0 view .LVU238
 843 01f4 2B68     		ldr	r3, [r5]
 345:Core/Src/SPI_TFT_ILI9341.c ****     handle->_cs(1);
 844              		.loc 1 345 5 view .LVU239
 845 01f6 4946     		mov	r1, r9
 846 01f8 2046     		mov	r0, r4
 847 01fa 9847     		blx	r3
 848              	.LVL81:
 346:Core/Src/SPI_TFT_ILI9341.c ****     
 849              		.loc 1 346 5 is_stmt 1 view .LVU240
 346:Core/Src/SPI_TFT_ILI9341.c ****     
 850              		.loc 1 346 11 is_stmt 0 view .LVU241
 851 01fc 6B68     		ldr	r3, [r5, #4]
 346:Core/Src/SPI_TFT_ILI9341.c ****     
 852              		.loc 1 346 5 view .LVU242
 853 01fe 3046     		mov	r0, r6
 854 0200 9847     		blx	r3
 855              	.LVL82:
 348:Core/Src/SPI_TFT_ILI9341.c ****     _buf[0] = 0x08;
 856              		.loc 1 348 5 is_stmt 1 view .LVU243
 857 0202 F221     		movs	r1, #242
 858 0204 2846     		mov	r0, r5
 859 0206 FFF7FEFF 		bl	wr_cmd
 860              	.LVL83:
 349:Core/Src/SPI_TFT_ILI9341.c ****     handle->_spi(_buf, 1);
 861              		.loc 1 349 5 view .LVU244
 349:Core/Src/SPI_TFT_ILI9341.c ****     handle->_spi(_buf, 1);
 862              		.loc 1 349 13 is_stmt 0 view .LVU245
 863 020a 0823     		movs	r3, #8
 864 020c 2370     		strb	r3, [r4]
 350:Core/Src/SPI_TFT_ILI9341.c ****     handle->_cs(1); 
 865              		.loc 1 350 5 is_stmt 1 view .LVU246
 350:Core/Src/SPI_TFT_ILI9341.c ****     handle->_cs(1); 
 866              		.loc 1 350 11 is_stmt 0 view .LVU247
 867 020e 2B68     		ldr	r3, [r5]
 350:Core/Src/SPI_TFT_ILI9341.c ****     handle->_cs(1); 
 868              		.loc 1 350 5 view .LVU248
 869 0210 3146     		mov	r1, r6
 870 0212 2046     		mov	r0, r4
 871 0214 9847     		blx	r3
 872              	.LVL84:
 351:Core/Src/SPI_TFT_ILI9341.c ****     
 873              		.loc 1 351 5 is_stmt 1 view .LVU249
 351:Core/Src/SPI_TFT_ILI9341.c ****     
 874              		.loc 1 351 11 is_stmt 0 view .LVU250
 875 0216 6B68     		ldr	r3, [r5, #4]
 351:Core/Src/SPI_TFT_ILI9341.c ****     
 876              		.loc 1 351 5 view .LVU251
 877 0218 3046     		mov	r0, r6
 878 021a 9847     		blx	r3
 879              	.LVL85:
 353:Core/Src/SPI_TFT_ILI9341.c ****     _buf[0] = 0x01;
 880              		.loc 1 353 5 is_stmt 1 view .LVU252
ARM GAS  /var/folders/gy/djtlh36967g6qz60tx0ltrsw0000gn/T//ccFocqOw.s 			page 28


 881 021c 5146     		mov	r1, r10
 882 021e 2846     		mov	r0, r5
 883 0220 FFF7FEFF 		bl	wr_cmd
 884              	.LVL86:
 354:Core/Src/SPI_TFT_ILI9341.c ****     handle->_spi(_buf, 1);
 885              		.loc 1 354 5 view .LVU253
 354:Core/Src/SPI_TFT_ILI9341.c ****     handle->_spi(_buf, 1);
 886              		.loc 1 354 13 is_stmt 0 view .LVU254
 887 0224 2670     		strb	r6, [r4]
 355:Core/Src/SPI_TFT_ILI9341.c ****     handle->_cs(1); 
 888              		.loc 1 355 5 is_stmt 1 view .LVU255
 355:Core/Src/SPI_TFT_ILI9341.c ****     handle->_cs(1); 
 889              		.loc 1 355 11 is_stmt 0 view .LVU256
 890 0226 2B68     		ldr	r3, [r5]
 355:Core/Src/SPI_TFT_ILI9341.c ****     handle->_cs(1); 
 891              		.loc 1 355 5 view .LVU257
 892 0228 3146     		mov	r1, r6
 893 022a 2046     		mov	r0, r4
 894 022c 9847     		blx	r3
 895              	.LVL87:
 356:Core/Src/SPI_TFT_ILI9341.c ****     
 896              		.loc 1 356 5 is_stmt 1 view .LVU258
 356:Core/Src/SPI_TFT_ILI9341.c ****     
 897              		.loc 1 356 11 is_stmt 0 view .LVU259
 898 022e 6B68     		ldr	r3, [r5, #4]
 356:Core/Src/SPI_TFT_ILI9341.c ****     
 899              		.loc 1 356 5 view .LVU260
 900 0230 3046     		mov	r0, r6
 901 0232 9847     		blx	r3
 902              	.LVL88:
 358:Core/Src/SPI_TFT_ILI9341.c ****     INIBUF();
 903              		.loc 1 358 5 is_stmt 1 view .LVU261
 904 0234 E021     		movs	r1, #224
 905 0236 2846     		mov	r0, r5
 906 0238 FFF7FEFF 		bl	wr_cmd
 907              	.LVL89:
 359:Core/Src/SPI_TFT_ILI9341.c ****     WBUF(0x1F); 
 908              		.loc 1 359 5 view .LVU262
 360:Core/Src/SPI_TFT_ILI9341.c ****     WBUF(0x1A); 
 909              		.loc 1 360 5 view .LVU263
 910 023c 4FF01F03 		mov	r3, #31
 911 0240 2370     		strb	r3, [r4]
 361:Core/Src/SPI_TFT_ILI9341.c ****     WBUF(0x18); 
 912              		.loc 1 361 5 view .LVU264
 913 0242 1A23     		movs	r3, #26
 914 0244 6370     		strb	r3, [r4, #1]
 362:Core/Src/SPI_TFT_ILI9341.c ****     WBUF(0x0A); 
 915              		.loc 1 362 5 view .LVU265
 916 0246 4FF01801 		mov	r1, #24
 917 024a A170     		strb	r1, [r4, #2]
 363:Core/Src/SPI_TFT_ILI9341.c ****     WBUF(0x0F); 
 918              		.loc 1 363 5 view .LVU266
 919 024c 4FF00A0A 		mov	r10, #10
 920 0250 84F803A0 		strb	r10, [r4, #3]
 364:Core/Src/SPI_TFT_ILI9341.c ****     WBUF(0x06); 
 921              		.loc 1 364 5 view .LVU267
 922 0254 4FF00F00 		mov	r0, #15
ARM GAS  /var/folders/gy/djtlh36967g6qz60tx0ltrsw0000gn/T//ccFocqOw.s 			page 29


 923 0258 2071     		strb	r0, [r4, #4]
 365:Core/Src/SPI_TFT_ILI9341.c ****     WBUF(0x45); 
 924              		.loc 1 365 5 view .LVU268
 925 025a 0623     		movs	r3, #6
 926 025c 6371     		strb	r3, [r4, #5]
 366:Core/Src/SPI_TFT_ILI9341.c ****     WBUF(0x87); 
 927              		.loc 1 366 5 view .LVU269
 928 025e 4523     		movs	r3, #69
 929 0260 A371     		strb	r3, [r4, #6]
 367:Core/Src/SPI_TFT_ILI9341.c ****     WBUF(0x32); 
 930              		.loc 1 367 5 view .LVU270
 931 0262 8723     		movs	r3, #135
 932 0264 E371     		strb	r3, [r4, #7]
 368:Core/Src/SPI_TFT_ILI9341.c ****     WBUF(0x0A); 
 933              		.loc 1 368 5 view .LVU271
 934 0266 3223     		movs	r3, #50
 935 0268 2372     		strb	r3, [r4, #8]
 369:Core/Src/SPI_TFT_ILI9341.c ****     WBUF(0x07); 
 936              		.loc 1 369 5 view .LVU272
 937 026a 84F809A0 		strb	r10, [r4, #9]
 370:Core/Src/SPI_TFT_ILI9341.c ****     WBUF(0x02); 
 938              		.loc 1 370 5 view .LVU273
 939 026e 4FF00703 		mov	r3, #7
 940 0272 A372     		strb	r3, [r4, #10]
 371:Core/Src/SPI_TFT_ILI9341.c ****     WBUF(0x07);
 941              		.loc 1 371 5 view .LVU274
 942 0274 84F80B90 		strb	r9, [r4, #11]
 372:Core/Src/SPI_TFT_ILI9341.c ****     WBUF(0x05); 
 943              		.loc 1 372 5 view .LVU275
 944 0278 2373     		strb	r3, [r4, #12]
 373:Core/Src/SPI_TFT_ILI9341.c ****     WBUF(0x00);
 945              		.loc 1 373 5 view .LVU276
 946 027a 84F80DB0 		strb	fp, [r4, #13]
 374:Core/Src/SPI_TFT_ILI9341.c ****     handle->_spi(_buf, _bufi);
 947              		.loc 1 374 5 view .LVU277
 948 027e 0F20     		movs	r0, #15
 949 0280 3860     		str	r0, [r7]
 950 0282 84F80E80 		strb	r8, [r4, #14]
 375:Core/Src/SPI_TFT_ILI9341.c ****     handle->_cs(1);
 951              		.loc 1 375 5 view .LVU278
 375:Core/Src/SPI_TFT_ILI9341.c ****     handle->_cs(1);
 952              		.loc 1 375 11 is_stmt 0 view .LVU279
 953 0286 2B68     		ldr	r3, [r5]
 375:Core/Src/SPI_TFT_ILI9341.c ****     handle->_cs(1);
 954              		.loc 1 375 5 view .LVU280
 955 0288 0146     		mov	r1, r0
 956 028a 2046     		mov	r0, r4
 957 028c 9847     		blx	r3
 958              	.LVL90:
 376:Core/Src/SPI_TFT_ILI9341.c ****     
 959              		.loc 1 376 5 is_stmt 1 view .LVU281
 376:Core/Src/SPI_TFT_ILI9341.c ****     
 960              		.loc 1 376 11 is_stmt 0 view .LVU282
 961 028e 6B68     		ldr	r3, [r5, #4]
 376:Core/Src/SPI_TFT_ILI9341.c ****     
 962              		.loc 1 376 5 view .LVU283
 963 0290 3046     		mov	r0, r6
ARM GAS  /var/folders/gy/djtlh36967g6qz60tx0ltrsw0000gn/T//ccFocqOw.s 			page 30


 964 0292 9847     		blx	r3
 965              	.LVL91:
 378:Core/Src/SPI_TFT_ILI9341.c ****     INIBUF();
 966              		.loc 1 378 5 is_stmt 1 view .LVU284
 967 0294 E121     		movs	r1, #225
 968 0296 2846     		mov	r0, r5
 969 0298 FFF7FEFF 		bl	wr_cmd
 970              	.LVL92:
 379:Core/Src/SPI_TFT_ILI9341.c ****     WBUF(0x00); 
 971              		.loc 1 379 5 view .LVU285
 380:Core/Src/SPI_TFT_ILI9341.c ****     WBUF(0x25); 
 972              		.loc 1 380 5 view .LVU286
 973 029c 84F80080 		strb	r8, [r4]
 381:Core/Src/SPI_TFT_ILI9341.c ****     WBUF(0x27); 
 974              		.loc 1 381 5 view .LVU287
 975 02a0 2523     		movs	r3, #37
 976 02a2 6370     		strb	r3, [r4, #1]
 382:Core/Src/SPI_TFT_ILI9341.c ****     WBUF(0x05); 
 977              		.loc 1 382 5 view .LVU288
 978 02a4 4FF02709 		mov	r9, #39
 979 02a8 84F80290 		strb	r9, [r4, #2]
 383:Core/Src/SPI_TFT_ILI9341.c ****     WBUF(0x10); 
 980              		.loc 1 383 5 view .LVU289
 981 02ac 84F803B0 		strb	fp, [r4, #3]
 384:Core/Src/SPI_TFT_ILI9341.c ****     WBUF(0x09); 
 982              		.loc 1 384 5 view .LVU290
 983 02b0 1023     		movs	r3, #16
 984 02b2 2371     		strb	r3, [r4, #4]
 385:Core/Src/SPI_TFT_ILI9341.c ****     WBUF(0x3A); 
 985              		.loc 1 385 5 view .LVU291
 986 02b4 0923     		movs	r3, #9
 987 02b6 6371     		strb	r3, [r4, #5]
 386:Core/Src/SPI_TFT_ILI9341.c ****     WBUF(0x78); 
 988              		.loc 1 386 5 view .LVU292
 989 02b8 3A23     		movs	r3, #58
 990 02ba A371     		strb	r3, [r4, #6]
 387:Core/Src/SPI_TFT_ILI9341.c ****     WBUF(0x4D); 
 991              		.loc 1 387 5 view .LVU293
 992 02bc 7822     		movs	r2, #120
 993 02be E271     		strb	r2, [r4, #7]
 388:Core/Src/SPI_TFT_ILI9341.c ****     WBUF(0x05); 
 994              		.loc 1 388 5 view .LVU294
 995 02c0 4D22     		movs	r2, #77
 996 02c2 2272     		strb	r2, [r4, #8]
 389:Core/Src/SPI_TFT_ILI9341.c ****     WBUF(0x18); 
 997              		.loc 1 389 5 view .LVU295
 998 02c4 84F809B0 		strb	fp, [r4, #9]
 390:Core/Src/SPI_TFT_ILI9341.c ****     WBUF(0x0D); 
 999              		.loc 1 390 5 view .LVU296
 1000 02c8 4FF01801 		mov	r1, #24
 1001 02cc A172     		strb	r1, [r4, #10]
 391:Core/Src/SPI_TFT_ILI9341.c ****     WBUF(0x38);
 1002              		.loc 1 391 5 view .LVU297
 1003 02ce 0D22     		movs	r2, #13
 1004 02d0 E272     		strb	r2, [r4, #11]
 392:Core/Src/SPI_TFT_ILI9341.c ****     WBUF(0x3A); 
 1005              		.loc 1 392 5 view .LVU298
ARM GAS  /var/folders/gy/djtlh36967g6qz60tx0ltrsw0000gn/T//ccFocqOw.s 			page 31


 1006 02d2 3822     		movs	r2, #56
 1007 02d4 2273     		strb	r2, [r4, #12]
 393:Core/Src/SPI_TFT_ILI9341.c ****     WBUF(0x1F);
 1008              		.loc 1 393 5 view .LVU299
 1009 02d6 6373     		strb	r3, [r4, #13]
 394:Core/Src/SPI_TFT_ILI9341.c ****     handle->_spi(_buf, _bufi);
 1010              		.loc 1 394 5 view .LVU300
 1011 02d8 0F21     		movs	r1, #15
 1012 02da 3960     		str	r1, [r7]
 1013 02dc 4FF01F02 		mov	r2, #31
 1014 02e0 A273     		strb	r2, [r4, #14]
 395:Core/Src/SPI_TFT_ILI9341.c ****     handle->_cs(1);
 1015              		.loc 1 395 5 view .LVU301
 395:Core/Src/SPI_TFT_ILI9341.c ****     handle->_cs(1);
 1016              		.loc 1 395 11 is_stmt 0 view .LVU302
 1017 02e2 2B68     		ldr	r3, [r5]
 395:Core/Src/SPI_TFT_ILI9341.c ****     handle->_cs(1);
 1018              		.loc 1 395 5 view .LVU303
 1019 02e4 2046     		mov	r0, r4
 1020 02e6 9847     		blx	r3
 1021              	.LVL93:
 396:Core/Src/SPI_TFT_ILI9341.c ****     
 1022              		.loc 1 396 5 is_stmt 1 view .LVU304
 396:Core/Src/SPI_TFT_ILI9341.c ****     
 1023              		.loc 1 396 11 is_stmt 0 view .LVU305
 1024 02e8 6B68     		ldr	r3, [r5, #4]
 396:Core/Src/SPI_TFT_ILI9341.c ****     
 1025              		.loc 1 396 5 view .LVU306
 1026 02ea 3046     		mov	r0, r6
 1027 02ec 9847     		blx	r3
 1028              	.LVL94:
 398:Core/Src/SPI_TFT_ILI9341.c ****     
 1029              		.loc 1 398 5 is_stmt 1 view .LVU307
 1030 02ee 2846     		mov	r0, r5
 1031 02f0 FFF7FEFF 		bl	WindowMax
 1032              	.LVL95:
 406:Core/Src/SPI_TFT_ILI9341.c ****     _buf[0] = 0x07;
 1033              		.loc 1 406 5 view .LVU308
 1034 02f4 B721     		movs	r1, #183
 1035 02f6 2846     		mov	r0, r5
 1036 02f8 FFF7FEFF 		bl	wr_cmd
 1037              	.LVL96:
 407:Core/Src/SPI_TFT_ILI9341.c ****     handle->_spi(_buf, 1);
 1038              		.loc 1 407 5 view .LVU309
 407:Core/Src/SPI_TFT_ILI9341.c ****     handle->_spi(_buf, 1);
 1039              		.loc 1 407 13 is_stmt 0 view .LVU310
 1040 02fc 4FF00703 		mov	r3, #7
 1041 0300 2370     		strb	r3, [r4]
 408:Core/Src/SPI_TFT_ILI9341.c ****     handle->_cs(1);
 1042              		.loc 1 408 5 is_stmt 1 view .LVU311
 408:Core/Src/SPI_TFT_ILI9341.c ****     handle->_cs(1);
 1043              		.loc 1 408 11 is_stmt 0 view .LVU312
 1044 0302 2B68     		ldr	r3, [r5]
 408:Core/Src/SPI_TFT_ILI9341.c ****     handle->_cs(1);
 1045              		.loc 1 408 5 view .LVU313
 1046 0304 3146     		mov	r1, r6
 1047 0306 2046     		mov	r0, r4
ARM GAS  /var/folders/gy/djtlh36967g6qz60tx0ltrsw0000gn/T//ccFocqOw.s 			page 32


 1048 0308 9847     		blx	r3
 1049              	.LVL97:
 409:Core/Src/SPI_TFT_ILI9341.c ****     
 1050              		.loc 1 409 5 is_stmt 1 view .LVU314
 409:Core/Src/SPI_TFT_ILI9341.c ****     
 1051              		.loc 1 409 11 is_stmt 0 view .LVU315
 1052 030a 6B68     		ldr	r3, [r5, #4]
 409:Core/Src/SPI_TFT_ILI9341.c ****     
 1053              		.loc 1 409 5 view .LVU316
 1054 030c 3046     		mov	r0, r6
 1055 030e 9847     		blx	r3
 1056              	.LVL98:
 411:Core/Src/SPI_TFT_ILI9341.c ****     INIBUF();
 1057              		.loc 1 411 5 is_stmt 1 view .LVU317
 1058 0310 B621     		movs	r1, #182
 1059 0312 2846     		mov	r0, r5
 1060 0314 FFF7FEFF 		bl	wr_cmd
 1061              	.LVL99:
 412:Core/Src/SPI_TFT_ILI9341.c ****     WBUF(0x0A);
 1062              		.loc 1 412 5 view .LVU318
 413:Core/Src/SPI_TFT_ILI9341.c ****     WBUF(0x82);
 1063              		.loc 1 413 5 view .LVU319
 1064 0318 84F800A0 		strb	r10, [r4]
 414:Core/Src/SPI_TFT_ILI9341.c ****     WBUF(0x27);
 1065              		.loc 1 414 5 view .LVU320
 1066 031c 8223     		movs	r3, #130
 1067 031e 6370     		strb	r3, [r4, #1]
 415:Core/Src/SPI_TFT_ILI9341.c ****     WBUF(0x00);
 1068              		.loc 1 415 5 view .LVU321
 1069 0320 84F80290 		strb	r9, [r4, #2]
 416:Core/Src/SPI_TFT_ILI9341.c ****     handle->_spi(_buf, _bufi);
 1070              		.loc 1 416 5 view .LVU322
 1071 0324 0423     		movs	r3, #4
 1072 0326 3B60     		str	r3, [r7]
 1073 0328 84F80380 		strb	r8, [r4, #3]
 417:Core/Src/SPI_TFT_ILI9341.c ****     handle->_cs(1);
 1074              		.loc 1 417 5 view .LVU323
 417:Core/Src/SPI_TFT_ILI9341.c ****     handle->_cs(1);
 1075              		.loc 1 417 11 is_stmt 0 view .LVU324
 1076 032c 2B68     		ldr	r3, [r5]
 417:Core/Src/SPI_TFT_ILI9341.c ****     handle->_cs(1);
 1077              		.loc 1 417 5 view .LVU325
 1078 032e 0421     		movs	r1, #4
 1079 0330 2046     		mov	r0, r4
 1080 0332 9847     		blx	r3
 1081              	.LVL100:
 418:Core/Src/SPI_TFT_ILI9341.c ****     
 1082              		.loc 1 418 5 is_stmt 1 view .LVU326
 418:Core/Src/SPI_TFT_ILI9341.c ****     
 1083              		.loc 1 418 11 is_stmt 0 view .LVU327
 1084 0334 6B68     		ldr	r3, [r5, #4]
 418:Core/Src/SPI_TFT_ILI9341.c ****     
 1085              		.loc 1 418 5 view .LVU328
 1086 0336 3046     		mov	r0, r6
 1087 0338 9847     		blx	r3
 1088              	.LVL101:
 420:Core/Src/SPI_TFT_ILI9341.c ****     handle->_cs(1);
ARM GAS  /var/folders/gy/djtlh36967g6qz60tx0ltrsw0000gn/T//ccFocqOw.s 			page 33


 1089              		.loc 1 420 5 is_stmt 1 view .LVU329
 1090 033a 1121     		movs	r1, #17
 1091 033c 2846     		mov	r0, r5
 1092 033e FFF7FEFF 		bl	wr_cmd
 1093              	.LVL102:
 421:Core/Src/SPI_TFT_ILI9341.c ****     
 1094              		.loc 1 421 5 view .LVU330
 421:Core/Src/SPI_TFT_ILI9341.c ****     
 1095              		.loc 1 421 11 is_stmt 0 view .LVU331
 1096 0342 6B68     		ldr	r3, [r5, #4]
 421:Core/Src/SPI_TFT_ILI9341.c ****     
 1097              		.loc 1 421 5 view .LVU332
 1098 0344 3046     		mov	r0, r6
 1099 0346 9847     		blx	r3
 1100              	.LVL103:
 423:Core/Src/SPI_TFT_ILI9341.c ****     
 1101              		.loc 1 423 5 is_stmt 1 view .LVU333
 423:Core/Src/SPI_TFT_ILI9341.c ****     
 1102              		.loc 1 423 11 is_stmt 0 view .LVU334
 1103 0348 2B69     		ldr	r3, [r5, #16]
 423:Core/Src/SPI_TFT_ILI9341.c ****     
 1104              		.loc 1 423 5 view .LVU335
 1105 034a 6420     		movs	r0, #100
 1106 034c 9847     		blx	r3
 1107              	.LVL104:
 425:Core/Src/SPI_TFT_ILI9341.c ****     handle->_cs(1);
 1108              		.loc 1 425 5 is_stmt 1 view .LVU336
 1109 034e 2921     		movs	r1, #41
 1110 0350 2846     		mov	r0, r5
 1111 0352 FFF7FEFF 		bl	wr_cmd
 1112              	.LVL105:
 426:Core/Src/SPI_TFT_ILI9341.c ****     
 1113              		.loc 1 426 5 view .LVU337
 426:Core/Src/SPI_TFT_ILI9341.c ****     
 1114              		.loc 1 426 11 is_stmt 0 view .LVU338
 1115 0356 6B68     		ldr	r3, [r5, #4]
 426:Core/Src/SPI_TFT_ILI9341.c ****     
 1116              		.loc 1 426 5 view .LVU339
 1117 0358 3046     		mov	r0, r6
 1118 035a 9847     		blx	r3
 1119              	.LVL106:
 428:Core/Src/SPI_TFT_ILI9341.c ****     
 1120              		.loc 1 428 5 is_stmt 1 view .LVU340
 428:Core/Src/SPI_TFT_ILI9341.c ****     
 1121              		.loc 1 428 11 is_stmt 0 view .LVU341
 1122 035c 2B69     		ldr	r3, [r5, #16]
 428:Core/Src/SPI_TFT_ILI9341.c ****     
 1123              		.loc 1 428 5 view .LVU342
 1124 035e 6420     		movs	r0, #100
 1125 0360 9847     		blx	r3
 1126              	.LVL107:
 430:Core/Src/SPI_TFT_ILI9341.c **** 
 1127              		.loc 1 430 2 view .LVU343
 1128 0362 BDE8F88F 		pop	{r3, r4, r5, r6, r7, r8, r9, r10, fp, pc}
 1129              	.LVL108:
 1130              	.L22:
 430:Core/Src/SPI_TFT_ILI9341.c **** 
ARM GAS  /var/folders/gy/djtlh36967g6qz60tx0ltrsw0000gn/T//ccFocqOw.s 			page 34


 1131              		.loc 1 430 2 view .LVU344
 1132 0366 00BF     		.align	2
 1133              	.L21:
 1134 0368 00000000 		.word	.LANCHOR0
 1135 036c 00000000 		.word	.LANCHOR1
 1136              		.cfi_endproc
 1137              	.LFE8:
 1139              		.section	.text.SPI_TFT_ILI9341,"ax",%progbits
 1140              		.align	1
 1141              		.global	SPI_TFT_ILI9341
 1142              		.syntax unified
 1143              		.thumb
 1144              		.thumb_func
 1145              		.fpu fpv5-d16
 1147              	SPI_TFT_ILI9341:
 1148              	.LVL109:
 1149              	.LFB0:
 117:Core/Src/SPI_TFT_ILI9341.c ****     handle->_spi = spi;
 1150              		.loc 1 117 1 is_stmt 1 view -0
 1151              		.cfi_startproc
 1152              		@ args = 8, pretend = 0, frame = 0
 1153              		@ frame_needed = 0, uses_anonymous_args = 0
 117:Core/Src/SPI_TFT_ILI9341.c ****     handle->_spi = spi;
 1154              		.loc 1 117 1 is_stmt 0 view .LVU346
 1155 0000 10B5     		push	{r4, lr}
 1156              	.LCFI6:
 1157              		.cfi_def_cfa_offset 8
 1158              		.cfi_offset 4, -8
 1159              		.cfi_offset 14, -4
 118:Core/Src/SPI_TFT_ILI9341.c ****     handle->_cs = cs;
 1160              		.loc 1 118 5 is_stmt 1 view .LVU347
 118:Core/Src/SPI_TFT_ILI9341.c ****     handle->_cs = cs;
 1161              		.loc 1 118 18 is_stmt 0 view .LVU348
 1162 0002 0160     		str	r1, [r0]
 119:Core/Src/SPI_TFT_ILI9341.c ****     handle->_reset = reset;
 1163              		.loc 1 119 5 is_stmt 1 view .LVU349
 119:Core/Src/SPI_TFT_ILI9341.c ****     handle->_reset = reset;
 1164              		.loc 1 119 17 is_stmt 0 view .LVU350
 1165 0004 4260     		str	r2, [r0, #4]
 120:Core/Src/SPI_TFT_ILI9341.c ****     handle->_dc = dc;
 1166              		.loc 1 120 5 is_stmt 1 view .LVU351
 120:Core/Src/SPI_TFT_ILI9341.c ****     handle->_dc = dc;
 1167              		.loc 1 120 20 is_stmt 0 view .LVU352
 1168 0006 8360     		str	r3, [r0, #8]
 121:Core/Src/SPI_TFT_ILI9341.c ****     handle->_waitms = waitms;
 1169              		.loc 1 121 5 is_stmt 1 view .LVU353
 121:Core/Src/SPI_TFT_ILI9341.c ****     handle->_waitms = waitms;
 1170              		.loc 1 121 17 is_stmt 0 view .LVU354
 1171 0008 029B     		ldr	r3, [sp, #8]
 1172              	.LVL110:
 121:Core/Src/SPI_TFT_ILI9341.c ****     handle->_waitms = waitms;
 1173              		.loc 1 121 17 view .LVU355
 1174 000a C360     		str	r3, [r0, #12]
 122:Core/Src/SPI_TFT_ILI9341.c ****     handle->orientation = 0;
 1175              		.loc 1 122 5 is_stmt 1 view .LVU356
 122:Core/Src/SPI_TFT_ILI9341.c ****     handle->orientation = 0;
 1176              		.loc 1 122 21 is_stmt 0 view .LVU357
ARM GAS  /var/folders/gy/djtlh36967g6qz60tx0ltrsw0000gn/T//ccFocqOw.s 			page 35


 1177 000c 039B     		ldr	r3, [sp, #12]
 1178 000e 0361     		str	r3, [r0, #16]
 123:Core/Src/SPI_TFT_ILI9341.c ****     handle->char_x = 0;
 1179              		.loc 1 123 5 is_stmt 1 view .LVU358
 123:Core/Src/SPI_TFT_ILI9341.c ****     handle->char_x = 0;
 1180              		.loc 1 123 25 is_stmt 0 view .LVU359
 1181 0010 0023     		movs	r3, #0
 1182 0012 C361     		str	r3, [r0, #28]
 124:Core/Src/SPI_TFT_ILI9341.c ****     //handle->_spi->format(8,3);                  // 8 bit spi mode 3
 1183              		.loc 1 124 5 is_stmt 1 view .LVU360
 124:Core/Src/SPI_TFT_ILI9341.c ****     //handle->_spi->format(8,3);                  // 8 bit spi mode 3
 1184              		.loc 1 124 20 is_stmt 0 view .LVU361
 1185 0014 0362     		str	r3, [r0, #32]
 127:Core/Src/SPI_TFT_ILI9341.c **** }
 1186              		.loc 1 127 5 is_stmt 1 view .LVU362
 1187 0016 FFF7FEFF 		bl	tft_reset
 1188              	.LVL111:
 128:Core/Src/SPI_TFT_ILI9341.c **** 
 1189              		.loc 1 128 1 is_stmt 0 view .LVU363
 1190 001a 10BD     		pop	{r4, pc}
 128:Core/Src/SPI_TFT_ILI9341.c **** 
 1191              		.loc 1 128 1 view .LVU364
 1192              		.cfi_endproc
 1193              	.LFE0:
 1195              		.section	.text.hline,"ax",%progbits
 1196              		.align	1
 1197              		.syntax unified
 1198              		.thumb
 1199              		.thumb_func
 1200              		.fpu fpv5-d16
 1202              	hline:
 1203              	.LVL112:
 1204              	.LFB15:
 482:Core/Src/SPI_TFT_ILI9341.c **** 
 483:Core/Src/SPI_TFT_ILI9341.c **** 
 484:Core/Src/SPI_TFT_ILI9341.c **** 
 485:Core/Src/SPI_TFT_ILI9341.c **** void SPI_TFT_ILI9341_cls(SPI_TFT_ILI9341_DriverStruct *handle)  
 486:Core/Src/SPI_TFT_ILI9341.c **** {
 487:Core/Src/SPI_TFT_ILI9341.c ****    // we can use the fillrect function 
 488:Core/Src/SPI_TFT_ILI9341.c ****    //SPI_TFT_ILI9341_fillrect(handle, 0, 0, SPI_TFT_ILI9341_width(handle)-1, SPI_TFT_ILI9341_height
 489:Core/Src/SPI_TFT_ILI9341.c ****    int x = SPI_TFT_ILI9341_width(handle) - 1;
 490:Core/Src/SPI_TFT_ILI9341.c ****    int h = SPI_TFT_ILI9341_height(handle);
 491:Core/Src/SPI_TFT_ILI9341.c ****    int i;
 492:Core/Src/SPI_TFT_ILI9341.c ****    for (i = 0; i < h; ++i)
 493:Core/Src/SPI_TFT_ILI9341.c ****        hline(handle, 0, x, i, handle->_background);
 494:Core/Src/SPI_TFT_ILI9341.c **** }
 495:Core/Src/SPI_TFT_ILI9341.c **** 
 496:Core/Src/SPI_TFT_ILI9341.c **** 
 497:Core/Src/SPI_TFT_ILI9341.c **** void SPI_TFT_ILI9341_circle(SPI_TFT_ILI9341_DriverStruct *handle, int x0, int y0, int r, int color)
 498:Core/Src/SPI_TFT_ILI9341.c **** {
 499:Core/Src/SPI_TFT_ILI9341.c **** 
 500:Core/Src/SPI_TFT_ILI9341.c ****     int x = -r, y = 0, err = 2-2*r, e2;
 501:Core/Src/SPI_TFT_ILI9341.c ****     do {
 502:Core/Src/SPI_TFT_ILI9341.c ****         SPI_TFT_ILI9341_pixel(handle, x0-x, y0+y, color);
 503:Core/Src/SPI_TFT_ILI9341.c ****         SPI_TFT_ILI9341_pixel(handle, x0+x, y0+y, color);
 504:Core/Src/SPI_TFT_ILI9341.c ****         SPI_TFT_ILI9341_pixel(handle, x0+x, y0-y, color);
 505:Core/Src/SPI_TFT_ILI9341.c ****         SPI_TFT_ILI9341_pixel(handle, x0-x, y0-y, color);
ARM GAS  /var/folders/gy/djtlh36967g6qz60tx0ltrsw0000gn/T//ccFocqOw.s 			page 36


 506:Core/Src/SPI_TFT_ILI9341.c ****         e2 = err;
 507:Core/Src/SPI_TFT_ILI9341.c ****         if (e2 <= y) {
 508:Core/Src/SPI_TFT_ILI9341.c ****             err += ++y*2+1;
 509:Core/Src/SPI_TFT_ILI9341.c ****             if (-x == y && e2 <= x) e2 = 0;
 510:Core/Src/SPI_TFT_ILI9341.c ****         }
 511:Core/Src/SPI_TFT_ILI9341.c ****         if (e2 > x) err += ++x*2+1;
 512:Core/Src/SPI_TFT_ILI9341.c ****     } while (x <= 0);
 513:Core/Src/SPI_TFT_ILI9341.c **** 
 514:Core/Src/SPI_TFT_ILI9341.c **** }
 515:Core/Src/SPI_TFT_ILI9341.c **** 
 516:Core/Src/SPI_TFT_ILI9341.c **** void SPI_TFT_ILI9341_fillcircle(SPI_TFT_ILI9341_DriverStruct *handle, int x0, int y0, int r, int co
 517:Core/Src/SPI_TFT_ILI9341.c **** {
 518:Core/Src/SPI_TFT_ILI9341.c ****     int x = -r, y = 0, err = 2-2*r, e2;
 519:Core/Src/SPI_TFT_ILI9341.c ****     do {
 520:Core/Src/SPI_TFT_ILI9341.c ****         vline(handle, x0-x, y0-y, y0+y, color);
 521:Core/Src/SPI_TFT_ILI9341.c ****         vline(handle, x0+x, y0-y, y0+y, color);
 522:Core/Src/SPI_TFT_ILI9341.c ****         e2 = err;
 523:Core/Src/SPI_TFT_ILI9341.c ****         if (e2 <= y) {
 524:Core/Src/SPI_TFT_ILI9341.c ****             err += ++y*2+1;
 525:Core/Src/SPI_TFT_ILI9341.c ****             if (-x == y && e2 <= x) e2 = 0;
 526:Core/Src/SPI_TFT_ILI9341.c ****         }
 527:Core/Src/SPI_TFT_ILI9341.c ****         if (e2 > x) err += ++x*2+1;
 528:Core/Src/SPI_TFT_ILI9341.c ****     } while (x <= 0);
 529:Core/Src/SPI_TFT_ILI9341.c **** }
 530:Core/Src/SPI_TFT_ILI9341.c **** 
 531:Core/Src/SPI_TFT_ILI9341.c **** 
 532:Core/Src/SPI_TFT_ILI9341.c **** void hline(SPI_TFT_ILI9341_DriverStruct *handle, int x0, int x1, int y, int color)
 533:Core/Src/SPI_TFT_ILI9341.c **** {
 1205              		.loc 1 533 1 is_stmt 1 view -0
 1206              		.cfi_startproc
 1207              		@ args = 4, pretend = 0, frame = 0
 1208              		@ frame_needed = 0, uses_anonymous_args = 0
 1209              		.loc 1 533 1 is_stmt 0 view .LVU366
 1210 0000 F0B5     		push	{r4, r5, r6, r7, lr}
 1211              	.LCFI7:
 1212              		.cfi_def_cfa_offset 20
 1213              		.cfi_offset 4, -20
 1214              		.cfi_offset 5, -16
 1215              		.cfi_offset 6, -12
 1216              		.cfi_offset 7, -8
 1217              		.cfi_offset 14, -4
 1218 0002 83B0     		sub	sp, sp, #12
 1219              	.LCFI8:
 1220              		.cfi_def_cfa_offset 32
 1221 0004 0646     		mov	r6, r0
 1222 0006 1F46     		mov	r7, r3
 1223 0008 089C     		ldr	r4, [sp, #32]
 534:Core/Src/SPI_TFT_ILI9341.c ****     int w;
 1224              		.loc 1 534 5 is_stmt 1 view .LVU367
 535:Core/Src/SPI_TFT_ILI9341.c ****     w = x1 - x0 + 1;
 1225              		.loc 1 535 5 view .LVU368
 1226              		.loc 1 535 12 is_stmt 0 view .LVU369
 1227 000a 521A     		subs	r2, r2, r1
 1228              	.LVL113:
 1229              		.loc 1 535 7 view .LVU370
 1230 000c 551C     		adds	r5, r2, #1
 1231              	.LVL114:
ARM GAS  /var/folders/gy/djtlh36967g6qz60tx0ltrsw0000gn/T//ccFocqOw.s 			page 37


 536:Core/Src/SPI_TFT_ILI9341.c ****     window(handle,x0,y,w,1);
 1232              		.loc 1 536 5 is_stmt 1 view .LVU371
 1233 000e 0123     		movs	r3, #1
 1234              	.LVL115:
 1235              		.loc 1 536 5 is_stmt 0 view .LVU372
 1236 0010 0093     		str	r3, [sp]
 1237 0012 2B46     		mov	r3, r5
 1238 0014 3A46     		mov	r2, r7
 1239 0016 FFF7FEFF 		bl	window
 1240              	.LVL116:
 537:Core/Src/SPI_TFT_ILI9341.c ****     wr_cmd(handle,0x2C);  // send pixel
 1241              		.loc 1 537 5 is_stmt 1 view .LVU373
 1242 001a 2C21     		movs	r1, #44
 1243 001c 3046     		mov	r0, r6
 1244 001e FFF7FEFF 		bl	wr_cmd
 1245              	.LVL117:
 538:Core/Src/SPI_TFT_ILI9341.c ****     int j;
 1246              		.loc 1 538 5 view .LVU374
 539:Core/Src/SPI_TFT_ILI9341.c ****     INIBUF();
 1247              		.loc 1 539 5 view .LVU375
 1248 0022 0023     		movs	r3, #0
 1249 0024 0E4A     		ldr	r2, .L30
 1250 0026 1360     		str	r3, [r2]
 540:Core/Src/SPI_TFT_ILI9341.c ****     for (j=0; j<w; j++) {
 1251              		.loc 1 540 5 view .LVU376
 1252              	.LVL118:
 1253              	.L26:
 1254              		.loc 1 540 5 is_stmt 0 discriminator 1 view .LVU377
 1255 0028 AB42     		cmp	r3, r5
 1256 002a 0CDA     		bge	.L29
 541:Core/Src/SPI_TFT_ILI9341.c ****         WBUF(color >> 8);
 1257              		.loc 1 541 9 is_stmt 1 discriminator 3 view .LVU378
 1258 002c 4FEA242C 		asr	ip, r4, #8
 1259 0030 0B48     		ldr	r0, .L30
 1260 0032 0768     		ldr	r7, [r0]
 1261 0034 7A1C     		adds	r2, r7, #1
 1262 0036 0B49     		ldr	r1, .L30+4
 1263 0038 01F807C0 		strb	ip, [r1, r7]
 542:Core/Src/SPI_TFT_ILI9341.c ****         WBUF(color & 0xff);
 1264              		.loc 1 542 9 discriminator 3 view .LVU379
 1265 003c 0237     		adds	r7, r7, #2
 1266 003e 0760     		str	r7, [r0]
 1267 0040 8C54     		strb	r4, [r1, r2]
 540:Core/Src/SPI_TFT_ILI9341.c ****     for (j=0; j<w; j++) {
 1268              		.loc 1 540 21 is_stmt 0 discriminator 3 view .LVU380
 1269 0042 0133     		adds	r3, r3, #1
 1270              	.LVL119:
 540:Core/Src/SPI_TFT_ILI9341.c ****     for (j=0; j<w; j++) {
 1271              		.loc 1 540 21 discriminator 3 view .LVU381
 1272 0044 F0E7     		b	.L26
 1273              	.L29:
 543:Core/Src/SPI_TFT_ILI9341.c ****     }
 544:Core/Src/SPI_TFT_ILI9341.c ****     handle->_spi(_buf, _bufi);
 1274              		.loc 1 544 5 is_stmt 1 view .LVU382
 1275              		.loc 1 544 11 is_stmt 0 view .LVU383
 1276 0046 3368     		ldr	r3, [r6]
 1277              	.LVL120:
ARM GAS  /var/folders/gy/djtlh36967g6qz60tx0ltrsw0000gn/T//ccFocqOw.s 			page 38


 1278              		.loc 1 544 5 view .LVU384
 1279 0048 054A     		ldr	r2, .L30
 1280 004a 1188     		ldrh	r1, [r2]
 1281 004c 0548     		ldr	r0, .L30+4
 1282 004e 9847     		blx	r3
 1283              	.LVL121:
 545:Core/Src/SPI_TFT_ILI9341.c ****     handle->_cs(1);
 1284              		.loc 1 545 5 is_stmt 1 view .LVU385
 1285              		.loc 1 545 11 is_stmt 0 view .LVU386
 1286 0050 7368     		ldr	r3, [r6, #4]
 1287              		.loc 1 545 5 view .LVU387
 1288 0052 0120     		movs	r0, #1
 1289 0054 9847     		blx	r3
 1290              	.LVL122:
 546:Core/Src/SPI_TFT_ILI9341.c ****     WindowMax(handle);
 1291              		.loc 1 546 5 is_stmt 1 view .LVU388
 1292 0056 3046     		mov	r0, r6
 1293 0058 FFF7FEFF 		bl	WindowMax
 1294              	.LVL123:
 547:Core/Src/SPI_TFT_ILI9341.c ****     return;
 1295              		.loc 1 547 5 view .LVU389
 548:Core/Src/SPI_TFT_ILI9341.c **** }
 1296              		.loc 1 548 1 is_stmt 0 view .LVU390
 1297 005c 03B0     		add	sp, sp, #12
 1298              	.LCFI9:
 1299              		.cfi_def_cfa_offset 20
 1300              		@ sp needed
 1301 005e F0BD     		pop	{r4, r5, r6, r7, pc}
 1302              	.LVL124:
 1303              	.L31:
 1304              		.loc 1 548 1 view .LVU391
 1305              		.align	2
 1306              	.L30:
 1307 0060 00000000 		.word	.LANCHOR1
 1308 0064 00000000 		.word	.LANCHOR0
 1309              		.cfi_endproc
 1310              	.LFE15:
 1312              		.section	.text.vline,"ax",%progbits
 1313              		.align	1
 1314              		.syntax unified
 1315              		.thumb
 1316              		.thumb_func
 1317              		.fpu fpv5-d16
 1319              	vline:
 1320              	.LVL125:
 1321              	.LFB16:
 549:Core/Src/SPI_TFT_ILI9341.c **** 
 550:Core/Src/SPI_TFT_ILI9341.c **** void vline(SPI_TFT_ILI9341_DriverStruct *handle, int x, int y0, int y1, int color)
 551:Core/Src/SPI_TFT_ILI9341.c **** {
 1322              		.loc 1 551 1 is_stmt 1 view -0
 1323              		.cfi_startproc
 1324              		@ args = 4, pretend = 0, frame = 0
 1325              		@ frame_needed = 0, uses_anonymous_args = 0
 1326              		.loc 1 551 1 is_stmt 0 view .LVU393
 1327 0000 F0B5     		push	{r4, r5, r6, r7, lr}
 1328              	.LCFI10:
 1329              		.cfi_def_cfa_offset 20
ARM GAS  /var/folders/gy/djtlh36967g6qz60tx0ltrsw0000gn/T//ccFocqOw.s 			page 39


 1330              		.cfi_offset 4, -20
 1331              		.cfi_offset 5, -16
 1332              		.cfi_offset 6, -12
 1333              		.cfi_offset 7, -8
 1334              		.cfi_offset 14, -4
 1335 0002 83B0     		sub	sp, sp, #12
 1336              	.LCFI11:
 1337              		.cfi_def_cfa_offset 32
 1338 0004 0646     		mov	r6, r0
 1339 0006 089C     		ldr	r4, [sp, #32]
 552:Core/Src/SPI_TFT_ILI9341.c ****     int h;
 1340              		.loc 1 552 5 is_stmt 1 view .LVU394
 553:Core/Src/SPI_TFT_ILI9341.c ****     h = y1 - y0 + 1;
 1341              		.loc 1 553 5 view .LVU395
 1342              		.loc 1 553 12 is_stmt 0 view .LVU396
 1343 0008 9B1A     		subs	r3, r3, r2
 1344              	.LVL126:
 1345              		.loc 1 553 7 view .LVU397
 1346 000a 5D1C     		adds	r5, r3, #1
 1347              	.LVL127:
 554:Core/Src/SPI_TFT_ILI9341.c ****     window(handle,x,y0,1,h);
 1348              		.loc 1 554 5 is_stmt 1 view .LVU398
 1349 000c 0095     		str	r5, [sp]
 1350 000e 0123     		movs	r3, #1
 1351 0010 FFF7FEFF 		bl	window
 1352              	.LVL128:
 555:Core/Src/SPI_TFT_ILI9341.c ****     wr_cmd(handle,0x2C);  // send pixel
 1353              		.loc 1 555 5 view .LVU399
 1354 0014 2C21     		movs	r1, #44
 1355 0016 3046     		mov	r0, r6
 1356 0018 FFF7FEFF 		bl	wr_cmd
 1357              	.LVL129:
 556:Core/Src/SPI_TFT_ILI9341.c ****     INIBUF();
 1358              		.loc 1 556 5 view .LVU400
 1359 001c 0023     		movs	r3, #0
 1360 001e 0F4A     		ldr	r2, .L37
 1361 0020 1360     		str	r3, [r2]
 557:Core/Src/SPI_TFT_ILI9341.c ****     int y;
 1362              		.loc 1 557 5 view .LVU401
 558:Core/Src/SPI_TFT_ILI9341.c ****     for (y=0; y<h; y++) {
 1363              		.loc 1 558 5 view .LVU402
 1364              	.LVL130:
 1365              	.L33:
 1366              		.loc 1 558 5 is_stmt 0 discriminator 1 view .LVU403
 1367 0022 AB42     		cmp	r3, r5
 1368 0024 0CDA     		bge	.L36
 559:Core/Src/SPI_TFT_ILI9341.c ****         WBUF(color >> 8);
 1369              		.loc 1 559 9 is_stmt 1 discriminator 3 view .LVU404
 1370 0026 4FEA242C 		asr	ip, r4, #8
 1371 002a 0C48     		ldr	r0, .L37
 1372 002c 0768     		ldr	r7, [r0]
 1373 002e 7A1C     		adds	r2, r7, #1
 1374 0030 0B49     		ldr	r1, .L37+4
 1375 0032 01F807C0 		strb	ip, [r1, r7]
 560:Core/Src/SPI_TFT_ILI9341.c ****         WBUF(color & 0xff);
 1376              		.loc 1 560 9 discriminator 3 view .LVU405
 1377 0036 0237     		adds	r7, r7, #2
ARM GAS  /var/folders/gy/djtlh36967g6qz60tx0ltrsw0000gn/T//ccFocqOw.s 			page 40


 1378 0038 0760     		str	r7, [r0]
 1379 003a 8C54     		strb	r4, [r1, r2]
 558:Core/Src/SPI_TFT_ILI9341.c ****     for (y=0; y<h; y++) {
 1380              		.loc 1 558 21 is_stmt 0 discriminator 3 view .LVU406
 1381 003c 0133     		adds	r3, r3, #1
 1382              	.LVL131:
 558:Core/Src/SPI_TFT_ILI9341.c ****     for (y=0; y<h; y++) {
 1383              		.loc 1 558 21 discriminator 3 view .LVU407
 1384 003e F0E7     		b	.L33
 1385              	.L36:
 561:Core/Src/SPI_TFT_ILI9341.c ****     } 
 562:Core/Src/SPI_TFT_ILI9341.c ****     handle->_spi(_buf, _bufi);
 1386              		.loc 1 562 5 is_stmt 1 view .LVU408
 1387              		.loc 1 562 11 is_stmt 0 view .LVU409
 1388 0040 3368     		ldr	r3, [r6]
 1389              	.LVL132:
 1390              		.loc 1 562 5 view .LVU410
 1391 0042 064A     		ldr	r2, .L37
 1392 0044 1188     		ldrh	r1, [r2]
 1393 0046 0648     		ldr	r0, .L37+4
 1394 0048 9847     		blx	r3
 1395              	.LVL133:
 563:Core/Src/SPI_TFT_ILI9341.c ****     handle->_cs(1);
 1396              		.loc 1 563 5 is_stmt 1 view .LVU411
 1397              		.loc 1 563 11 is_stmt 0 view .LVU412
 1398 004a 7368     		ldr	r3, [r6, #4]
 1399              		.loc 1 563 5 view .LVU413
 1400 004c 0120     		movs	r0, #1
 1401 004e 9847     		blx	r3
 1402              	.LVL134:
 564:Core/Src/SPI_TFT_ILI9341.c ****     WindowMax(handle);
 1403              		.loc 1 564 5 is_stmt 1 view .LVU414
 1404 0050 3046     		mov	r0, r6
 1405 0052 FFF7FEFF 		bl	WindowMax
 1406              	.LVL135:
 565:Core/Src/SPI_TFT_ILI9341.c ****     return;
 1407              		.loc 1 565 5 view .LVU415
 566:Core/Src/SPI_TFT_ILI9341.c **** 
 567:Core/Src/SPI_TFT_ILI9341.c **** }
 1408              		.loc 1 567 1 is_stmt 0 view .LVU416
 1409 0056 03B0     		add	sp, sp, #12
 1410              	.LCFI12:
 1411              		.cfi_def_cfa_offset 20
 1412              		@ sp needed
 1413 0058 F0BD     		pop	{r4, r5, r6, r7, pc}
 1414              	.LVL136:
 1415              	.L38:
 1416              		.loc 1 567 1 view .LVU417
 1417 005a 00BF     		.align	2
 1418              	.L37:
 1419 005c 00000000 		.word	.LANCHOR1
 1420 0060 00000000 		.word	.LANCHOR0
 1421              		.cfi_endproc
 1422              	.LFE16:
 1424              		.section	.text.SPI_TFT_ILI9341_set_orientation,"ax",%progbits
 1425              		.align	1
 1426              		.global	SPI_TFT_ILI9341_set_orientation
ARM GAS  /var/folders/gy/djtlh36967g6qz60tx0ltrsw0000gn/T//ccFocqOw.s 			page 41


 1427              		.syntax unified
 1428              		.thumb
 1429              		.thumb_func
 1430              		.fpu fpv5-d16
 1432              	SPI_TFT_ILI9341_set_orientation:
 1433              	.LVL137:
 1434              	.LFB5:
 153:Core/Src/SPI_TFT_ILI9341.c ****     handle->orientation = o;
 1435              		.loc 1 153 1 is_stmt 1 view -0
 1436              		.cfi_startproc
 1437              		@ args = 0, pretend = 0, frame = 0
 1438              		@ frame_needed = 0, uses_anonymous_args = 0
 153:Core/Src/SPI_TFT_ILI9341.c ****     handle->orientation = o;
 1439              		.loc 1 153 1 is_stmt 0 view .LVU419
 1440 0000 38B5     		push	{r3, r4, r5, lr}
 1441              	.LCFI13:
 1442              		.cfi_def_cfa_offset 16
 1443              		.cfi_offset 3, -16
 1444              		.cfi_offset 4, -12
 1445              		.cfi_offset 5, -8
 1446              		.cfi_offset 14, -4
 1447 0002 0446     		mov	r4, r0
 1448 0004 0D46     		mov	r5, r1
 154:Core/Src/SPI_TFT_ILI9341.c ****     wr_cmd(handle, 0x36);                     // MEMORY_ACCESS_CONTROL
 1449              		.loc 1 154 5 is_stmt 1 view .LVU420
 154:Core/Src/SPI_TFT_ILI9341.c ****     wr_cmd(handle, 0x36);                     // MEMORY_ACCESS_CONTROL
 1450              		.loc 1 154 25 is_stmt 0 view .LVU421
 1451 0006 C161     		str	r1, [r0, #28]
 155:Core/Src/SPI_TFT_ILI9341.c ****     switch (o) {
 1452              		.loc 1 155 5 is_stmt 1 view .LVU422
 1453 0008 3621     		movs	r1, #54
 1454              	.LVL138:
 155:Core/Src/SPI_TFT_ILI9341.c ****     switch (o) {
 1455              		.loc 1 155 5 is_stmt 0 view .LVU423
 1456 000a FFF7FEFF 		bl	wr_cmd
 1457              	.LVL139:
 156:Core/Src/SPI_TFT_ILI9341.c ****         case 0:
 1458              		.loc 1 156 5 is_stmt 1 view .LVU424
 1459 000e 032D     		cmp	r5, #3
 1460 0010 06D8     		bhi	.L40
 1461 0012 DFE805F0 		tbb	[pc, r5]
 1462              	.L42:
 1463 0016 02       		.byte	(.L45-.L42)/2
 1464 0017 10       		.byte	(.L44-.L42)/2
 1465 0018 14       		.byte	(.L43-.L42)/2
 1466 0019 18       		.byte	(.L41-.L42)/2
 1467              		.p2align 1
 1468              	.L45:
 158:Core/Src/SPI_TFT_ILI9341.c ****             break;
 1469              		.loc 1 158 13 view .LVU425
 158:Core/Src/SPI_TFT_ILI9341.c ****             break;
 1470              		.loc 1 158 21 is_stmt 0 view .LVU426
 1471 001a 0D4B     		ldr	r3, .L47
 1472 001c 4822     		movs	r2, #72
 1473 001e 1A70     		strb	r2, [r3]
 159:Core/Src/SPI_TFT_ILI9341.c ****         case 1:
 1474              		.loc 1 159 13 is_stmt 1 view .LVU427
ARM GAS  /var/folders/gy/djtlh36967g6qz60tx0ltrsw0000gn/T//ccFocqOw.s 			page 42


 1475              	.L40:
 170:Core/Src/SPI_TFT_ILI9341.c ****     handle->_cs(1); 
 1476              		.loc 1 170 5 view .LVU428
 170:Core/Src/SPI_TFT_ILI9341.c ****     handle->_cs(1); 
 1477              		.loc 1 170 11 is_stmt 0 view .LVU429
 1478 0020 2368     		ldr	r3, [r4]
 170:Core/Src/SPI_TFT_ILI9341.c ****     handle->_cs(1); 
 1479              		.loc 1 170 5 view .LVU430
 1480 0022 0121     		movs	r1, #1
 1481 0024 0A48     		ldr	r0, .L47
 1482 0026 9847     		blx	r3
 1483              	.LVL140:
 171:Core/Src/SPI_TFT_ILI9341.c ****     WindowMax(handle);
 1484              		.loc 1 171 5 is_stmt 1 view .LVU431
 171:Core/Src/SPI_TFT_ILI9341.c ****     WindowMax(handle);
 1485              		.loc 1 171 11 is_stmt 0 view .LVU432
 1486 0028 6368     		ldr	r3, [r4, #4]
 171:Core/Src/SPI_TFT_ILI9341.c ****     WindowMax(handle);
 1487              		.loc 1 171 5 view .LVU433
 1488 002a 0120     		movs	r0, #1
 1489 002c 9847     		blx	r3
 1490              	.LVL141:
 172:Core/Src/SPI_TFT_ILI9341.c **** } 
 1491              		.loc 1 172 5 is_stmt 1 view .LVU434
 1492 002e 2046     		mov	r0, r4
 1493 0030 FFF7FEFF 		bl	WindowMax
 1494              	.LVL142:
 173:Core/Src/SPI_TFT_ILI9341.c **** 
 1495              		.loc 1 173 1 is_stmt 0 view .LVU435
 1496 0034 38BD     		pop	{r3, r4, r5, pc}
 1497              	.LVL143:
 1498              	.L44:
 161:Core/Src/SPI_TFT_ILI9341.c ****             break;
 1499              		.loc 1 161 13 is_stmt 1 view .LVU436
 161:Core/Src/SPI_TFT_ILI9341.c ****             break;
 1500              		.loc 1 161 21 is_stmt 0 view .LVU437
 1501 0036 064B     		ldr	r3, .L47
 1502 0038 2822     		movs	r2, #40
 1503 003a 1A70     		strb	r2, [r3]
 162:Core/Src/SPI_TFT_ILI9341.c ****         case 2:
 1504              		.loc 1 162 13 is_stmt 1 view .LVU438
 1505 003c F0E7     		b	.L40
 1506              	.L43:
 164:Core/Src/SPI_TFT_ILI9341.c ****             break;
 1507              		.loc 1 164 13 view .LVU439
 164:Core/Src/SPI_TFT_ILI9341.c ****             break;
 1508              		.loc 1 164 21 is_stmt 0 view .LVU440
 1509 003e 044B     		ldr	r3, .L47
 1510 0040 8822     		movs	r2, #136
 1511 0042 1A70     		strb	r2, [r3]
 165:Core/Src/SPI_TFT_ILI9341.c ****         case 3:
 1512              		.loc 1 165 13 is_stmt 1 view .LVU441
 1513 0044 ECE7     		b	.L40
 1514              	.L41:
 167:Core/Src/SPI_TFT_ILI9341.c ****             break;
 1515              		.loc 1 167 13 view .LVU442
 167:Core/Src/SPI_TFT_ILI9341.c ****             break;
ARM GAS  /var/folders/gy/djtlh36967g6qz60tx0ltrsw0000gn/T//ccFocqOw.s 			page 43


 1516              		.loc 1 167 21 is_stmt 0 view .LVU443
 1517 0046 024B     		ldr	r3, .L47
 1518 0048 E822     		movs	r2, #232
 1519 004a 1A70     		strb	r2, [r3]
 168:Core/Src/SPI_TFT_ILI9341.c ****     }
 1520              		.loc 1 168 13 is_stmt 1 view .LVU444
 1521 004c E8E7     		b	.L40
 1522              	.L48:
 1523 004e 00BF     		.align	2
 1524              	.L47:
 1525 0050 00000000 		.word	.LANCHOR0
 1526              		.cfi_endproc
 1527              	.LFE5:
 1529              		.section	.text.SPI_TFT_ILI9341_pixel,"ax",%progbits
 1530              		.align	1
 1531              		.global	SPI_TFT_ILI9341_pixel
 1532              		.syntax unified
 1533              		.thumb
 1534              		.thumb_func
 1535              		.fpu fpv5-d16
 1537              	SPI_TFT_ILI9341_pixel:
 1538              	.LVL144:
 1539              	.LFB9:
 434:Core/Src/SPI_TFT_ILI9341.c ****     wr_cmd(handle, 0x2A);
 1540              		.loc 1 434 1 view -0
 1541              		.cfi_startproc
 1542              		@ args = 0, pretend = 0, frame = 0
 1543              		@ frame_needed = 0, uses_anonymous_args = 0
 434:Core/Src/SPI_TFT_ILI9341.c ****     wr_cmd(handle, 0x2A);
 1544              		.loc 1 434 1 is_stmt 0 view .LVU446
 1545 0000 2DE9F047 		push	{r4, r5, r6, r7, r8, r9, r10, lr}
 1546              	.LCFI14:
 1547              		.cfi_def_cfa_offset 32
 1548              		.cfi_offset 4, -32
 1549              		.cfi_offset 5, -28
 1550              		.cfi_offset 6, -24
 1551              		.cfi_offset 7, -20
 1552              		.cfi_offset 8, -16
 1553              		.cfi_offset 9, -12
 1554              		.cfi_offset 10, -8
 1555              		.cfi_offset 14, -4
 1556 0004 0546     		mov	r5, r0
 1557 0006 8A46     		mov	r10, r1
 1558 0008 9146     		mov	r9, r2
 1559 000a 9846     		mov	r8, r3
 435:Core/Src/SPI_TFT_ILI9341.c ****     INIBUF();
 1560              		.loc 1 435 5 is_stmt 1 view .LVU447
 1561 000c 2A21     		movs	r1, #42
 1562              	.LVL145:
 435:Core/Src/SPI_TFT_ILI9341.c ****     INIBUF();
 1563              		.loc 1 435 5 is_stmt 0 view .LVU448
 1564 000e FFF7FEFF 		bl	wr_cmd
 1565              	.LVL146:
 436:Core/Src/SPI_TFT_ILI9341.c ****     WBUF(x >> 8);
 1566              		.loc 1 436 5 is_stmt 1 view .LVU449
 437:Core/Src/SPI_TFT_ILI9341.c ****     WBUF(x);
 1567              		.loc 1 437 5 view .LVU450
ARM GAS  /var/folders/gy/djtlh36967g6qz60tx0ltrsw0000gn/T//ccFocqOw.s 			page 44


 1568 0012 4FEA2A23 		asr	r3, r10, #8
 1569 0016 194C     		ldr	r4, .L51
 1570 0018 2370     		strb	r3, [r4]
 438:Core/Src/SPI_TFT_ILI9341.c ****     handle->_spi(_buf, _bufi);
 1571              		.loc 1 438 5 view .LVU451
 1572 001a 194F     		ldr	r7, .L51+4
 1573 001c 0226     		movs	r6, #2
 1574 001e 3E60     		str	r6, [r7]
 1575 0020 84F801A0 		strb	r10, [r4, #1]
 439:Core/Src/SPI_TFT_ILI9341.c ****     handle->_cs(1);
 1576              		.loc 1 439 5 view .LVU452
 439:Core/Src/SPI_TFT_ILI9341.c ****     handle->_cs(1);
 1577              		.loc 1 439 11 is_stmt 0 view .LVU453
 1578 0024 2B68     		ldr	r3, [r5]
 439:Core/Src/SPI_TFT_ILI9341.c ****     handle->_cs(1);
 1579              		.loc 1 439 5 view .LVU454
 1580 0026 3146     		mov	r1, r6
 1581 0028 2046     		mov	r0, r4
 1582 002a 9847     		blx	r3
 1583              	.LVL147:
 440:Core/Src/SPI_TFT_ILI9341.c ****     wr_cmd(handle, 0x2B);
 1584              		.loc 1 440 5 is_stmt 1 view .LVU455
 440:Core/Src/SPI_TFT_ILI9341.c ****     wr_cmd(handle, 0x2B);
 1585              		.loc 1 440 11 is_stmt 0 view .LVU456
 1586 002c 6B68     		ldr	r3, [r5, #4]
 440:Core/Src/SPI_TFT_ILI9341.c ****     wr_cmd(handle, 0x2B);
 1587              		.loc 1 440 5 view .LVU457
 1588 002e 0120     		movs	r0, #1
 1589 0030 9847     		blx	r3
 1590              	.LVL148:
 441:Core/Src/SPI_TFT_ILI9341.c ****     INIBUF();
 1591              		.loc 1 441 5 is_stmt 1 view .LVU458
 1592 0032 2B21     		movs	r1, #43
 1593 0034 2846     		mov	r0, r5
 1594 0036 FFF7FEFF 		bl	wr_cmd
 1595              	.LVL149:
 442:Core/Src/SPI_TFT_ILI9341.c ****     WBUF(y >> 8);
 1596              		.loc 1 442 5 view .LVU459
 443:Core/Src/SPI_TFT_ILI9341.c ****     WBUF(y); 
 1597              		.loc 1 443 5 view .LVU460
 1598 003a 4FEA2923 		asr	r3, r9, #8
 1599 003e 2370     		strb	r3, [r4]
 444:Core/Src/SPI_TFT_ILI9341.c ****     handle->_spi(_buf, _bufi);
 1600              		.loc 1 444 5 view .LVU461
 1601 0040 3E60     		str	r6, [r7]
 1602 0042 84F80190 		strb	r9, [r4, #1]
 445:Core/Src/SPI_TFT_ILI9341.c ****     handle->_cs(1);
 1603              		.loc 1 445 5 view .LVU462
 445:Core/Src/SPI_TFT_ILI9341.c ****     handle->_cs(1);
 1604              		.loc 1 445 11 is_stmt 0 view .LVU463
 1605 0046 2B68     		ldr	r3, [r5]
 445:Core/Src/SPI_TFT_ILI9341.c ****     handle->_cs(1);
 1606              		.loc 1 445 5 view .LVU464
 1607 0048 3146     		mov	r1, r6
 1608 004a 2046     		mov	r0, r4
 1609 004c 9847     		blx	r3
 1610              	.LVL150:
ARM GAS  /var/folders/gy/djtlh36967g6qz60tx0ltrsw0000gn/T//ccFocqOw.s 			page 45


 446:Core/Src/SPI_TFT_ILI9341.c ****     wr_cmd(handle, 0x2C);  // send pixel
 1611              		.loc 1 446 5 is_stmt 1 view .LVU465
 446:Core/Src/SPI_TFT_ILI9341.c ****     wr_cmd(handle, 0x2C);  // send pixel
 1612              		.loc 1 446 11 is_stmt 0 view .LVU466
 1613 004e 6B68     		ldr	r3, [r5, #4]
 446:Core/Src/SPI_TFT_ILI9341.c ****     wr_cmd(handle, 0x2C);  // send pixel
 1614              		.loc 1 446 5 view .LVU467
 1615 0050 0120     		movs	r0, #1
 1616 0052 9847     		blx	r3
 1617              	.LVL151:
 447:Core/Src/SPI_TFT_ILI9341.c ****     INIBUF();
 1618              		.loc 1 447 5 is_stmt 1 view .LVU468
 1619 0054 2C21     		movs	r1, #44
 1620 0056 2846     		mov	r0, r5
 1621 0058 FFF7FEFF 		bl	wr_cmd
 1622              	.LVL152:
 448:Core/Src/SPI_TFT_ILI9341.c ****     WBUF(colour >> 8);
 1623              		.loc 1 448 5 view .LVU469
 449:Core/Src/SPI_TFT_ILI9341.c ****     WBUF(colour & 0xff);
 1624              		.loc 1 449 5 view .LVU470
 1625 005c 4FEA2823 		asr	r3, r8, #8
 1626 0060 2370     		strb	r3, [r4]
 450:Core/Src/SPI_TFT_ILI9341.c ****     handle->_spi(_buf, _bufi);
 1627              		.loc 1 450 5 view .LVU471
 1628 0062 3E60     		str	r6, [r7]
 1629 0064 84F80180 		strb	r8, [r4, #1]
 451:Core/Src/SPI_TFT_ILI9341.c ****     handle->_cs(1);
 1630              		.loc 1 451 5 view .LVU472
 451:Core/Src/SPI_TFT_ILI9341.c ****     handle->_cs(1);
 1631              		.loc 1 451 11 is_stmt 0 view .LVU473
 1632 0068 2B68     		ldr	r3, [r5]
 451:Core/Src/SPI_TFT_ILI9341.c ****     handle->_cs(1);
 1633              		.loc 1 451 5 view .LVU474
 1634 006a 3146     		mov	r1, r6
 1635 006c 2046     		mov	r0, r4
 1636 006e 9847     		blx	r3
 1637              	.LVL153:
 452:Core/Src/SPI_TFT_ILI9341.c **** }
 1638              		.loc 1 452 5 is_stmt 1 view .LVU475
 452:Core/Src/SPI_TFT_ILI9341.c **** }
 1639              		.loc 1 452 11 is_stmt 0 view .LVU476
 1640 0070 6B68     		ldr	r3, [r5, #4]
 452:Core/Src/SPI_TFT_ILI9341.c **** }
 1641              		.loc 1 452 5 view .LVU477
 1642 0072 0120     		movs	r0, #1
 1643 0074 9847     		blx	r3
 1644              	.LVL154:
 453:Core/Src/SPI_TFT_ILI9341.c **** 
 1645              		.loc 1 453 1 view .LVU478
 1646 0076 BDE8F087 		pop	{r4, r5, r6, r7, r8, r9, r10, pc}
 1647              	.LVL155:
 1648              	.L52:
 453:Core/Src/SPI_TFT_ILI9341.c **** 
 1649              		.loc 1 453 1 view .LVU479
 1650 007a 00BF     		.align	2
 1651              	.L51:
 1652 007c 00000000 		.word	.LANCHOR0
ARM GAS  /var/folders/gy/djtlh36967g6qz60tx0ltrsw0000gn/T//ccFocqOw.s 			page 46


 1653 0080 00000000 		.word	.LANCHOR1
 1654              		.cfi_endproc
 1655              	.LFE9:
 1657              		.section	.text.SPI_TFT_ILI9341_cls,"ax",%progbits
 1658              		.align	1
 1659              		.global	SPI_TFT_ILI9341_cls
 1660              		.syntax unified
 1661              		.thumb
 1662              		.thumb_func
 1663              		.fpu fpv5-d16
 1665              	SPI_TFT_ILI9341_cls:
 1666              	.LVL156:
 1667              	.LFB12:
 486:Core/Src/SPI_TFT_ILI9341.c ****    // we can use the fillrect function 
 1668              		.loc 1 486 1 is_stmt 1 view -0
 1669              		.cfi_startproc
 1670              		@ args = 0, pretend = 0, frame = 0
 1671              		@ frame_needed = 0, uses_anonymous_args = 0
 486:Core/Src/SPI_TFT_ILI9341.c ****    // we can use the fillrect function 
 1672              		.loc 1 486 1 is_stmt 0 view .LVU481
 1673 0000 F0B5     		push	{r4, r5, r6, r7, lr}
 1674              	.LCFI15:
 1675              		.cfi_def_cfa_offset 20
 1676              		.cfi_offset 4, -20
 1677              		.cfi_offset 5, -16
 1678              		.cfi_offset 6, -12
 1679              		.cfi_offset 7, -8
 1680              		.cfi_offset 14, -4
 1681 0002 83B0     		sub	sp, sp, #12
 1682              	.LCFI16:
 1683              		.cfi_def_cfa_offset 32
 1684 0004 0546     		mov	r5, r0
 489:Core/Src/SPI_TFT_ILI9341.c ****    int h = SPI_TFT_ILI9341_height(handle);
 1685              		.loc 1 489 4 is_stmt 1 view .LVU482
 489:Core/Src/SPI_TFT_ILI9341.c ****    int h = SPI_TFT_ILI9341_height(handle);
 1686              		.loc 1 489 12 is_stmt 0 view .LVU483
 1687 0006 FFF7FEFF 		bl	SPI_TFT_ILI9341_width
 1688              	.LVL157:
 489:Core/Src/SPI_TFT_ILI9341.c ****    int h = SPI_TFT_ILI9341_height(handle);
 1689              		.loc 1 489 8 view .LVU484
 1690 000a 471E     		subs	r7, r0, #1
 1691              	.LVL158:
 490:Core/Src/SPI_TFT_ILI9341.c ****    int i;
 1692              		.loc 1 490 4 is_stmt 1 view .LVU485
 490:Core/Src/SPI_TFT_ILI9341.c ****    int i;
 1693              		.loc 1 490 12 is_stmt 0 view .LVU486
 1694 000c 2846     		mov	r0, r5
 1695 000e FFF7FEFF 		bl	SPI_TFT_ILI9341_height
 1696              	.LVL159:
 1697 0012 0646     		mov	r6, r0
 1698              	.LVL160:
 491:Core/Src/SPI_TFT_ILI9341.c ****    for (i = 0; i < h; ++i)
 1699              		.loc 1 491 4 is_stmt 1 view .LVU487
 492:Core/Src/SPI_TFT_ILI9341.c ****        hline(handle, 0, x, i, handle->_background);
 1700              		.loc 1 492 4 view .LVU488
 492:Core/Src/SPI_TFT_ILI9341.c ****        hline(handle, 0, x, i, handle->_background);
 1701              		.loc 1 492 11 is_stmt 0 view .LVU489
ARM GAS  /var/folders/gy/djtlh36967g6qz60tx0ltrsw0000gn/T//ccFocqOw.s 			page 47


 1702 0014 0024     		movs	r4, #0
 1703              	.LVL161:
 1704              	.L54:
 492:Core/Src/SPI_TFT_ILI9341.c ****        hline(handle, 0, x, i, handle->_background);
 1705              		.loc 1 492 4 discriminator 1 view .LVU490
 1706 0016 B442     		cmp	r4, r6
 1707 0018 09DA     		bge	.L57
 493:Core/Src/SPI_TFT_ILI9341.c **** }
 1708              		.loc 1 493 8 is_stmt 1 discriminator 3 view .LVU491
 493:Core/Src/SPI_TFT_ILI9341.c **** }
 1709              		.loc 1 493 37 is_stmt 0 discriminator 3 view .LVU492
 1710 001a 2B8E     		ldrh	r3, [r5, #48]
 493:Core/Src/SPI_TFT_ILI9341.c **** }
 1711              		.loc 1 493 8 discriminator 3 view .LVU493
 1712 001c 0093     		str	r3, [sp]
 1713 001e 2346     		mov	r3, r4
 1714 0020 3A46     		mov	r2, r7
 1715 0022 0021     		movs	r1, #0
 1716 0024 2846     		mov	r0, r5
 1717 0026 FFF7FEFF 		bl	hline
 1718              	.LVL162:
 492:Core/Src/SPI_TFT_ILI9341.c ****        hline(handle, 0, x, i, handle->_background);
 1719              		.loc 1 492 23 discriminator 3 view .LVU494
 1720 002a 0134     		adds	r4, r4, #1
 1721              	.LVL163:
 492:Core/Src/SPI_TFT_ILI9341.c ****        hline(handle, 0, x, i, handle->_background);
 1722              		.loc 1 492 23 discriminator 3 view .LVU495
 1723 002c F3E7     		b	.L54
 1724              	.L57:
 494:Core/Src/SPI_TFT_ILI9341.c **** 
 1725              		.loc 1 494 1 view .LVU496
 1726 002e 03B0     		add	sp, sp, #12
 1727              	.LCFI17:
 1728              		.cfi_def_cfa_offset 20
 1729              		@ sp needed
 1730 0030 F0BD     		pop	{r4, r5, r6, r7, pc}
 494:Core/Src/SPI_TFT_ILI9341.c **** 
 1731              		.loc 1 494 1 view .LVU497
 1732              		.cfi_endproc
 1733              	.LFE12:
 1735              		.section	.text.SPI_TFT_ILI9341_circle,"ax",%progbits
 1736              		.align	1
 1737              		.global	SPI_TFT_ILI9341_circle
 1738              		.syntax unified
 1739              		.thumb
 1740              		.thumb_func
 1741              		.fpu fpv5-d16
 1743              	SPI_TFT_ILI9341_circle:
 1744              	.LVL164:
 1745              	.LFB13:
 498:Core/Src/SPI_TFT_ILI9341.c **** 
 1746              		.loc 1 498 1 is_stmt 1 view -0
 1747              		.cfi_startproc
 1748              		@ args = 4, pretend = 0, frame = 8
 1749              		@ frame_needed = 0, uses_anonymous_args = 0
 498:Core/Src/SPI_TFT_ILI9341.c **** 
 1750              		.loc 1 498 1 is_stmt 0 view .LVU499
ARM GAS  /var/folders/gy/djtlh36967g6qz60tx0ltrsw0000gn/T//ccFocqOw.s 			page 48


 1751 0000 2DE9F04F 		push	{r4, r5, r6, r7, r8, r9, r10, fp, lr}
 1752              	.LCFI18:
 1753              		.cfi_def_cfa_offset 36
 1754              		.cfi_offset 4, -36
 1755              		.cfi_offset 5, -32
 1756              		.cfi_offset 6, -28
 1757              		.cfi_offset 7, -24
 1758              		.cfi_offset 8, -20
 1759              		.cfi_offset 9, -16
 1760              		.cfi_offset 10, -12
 1761              		.cfi_offset 11, -8
 1762              		.cfi_offset 14, -4
 1763 0004 83B0     		sub	sp, sp, #12
 1764              	.LCFI19:
 1765              		.cfi_def_cfa_offset 48
 1766 0006 0190     		str	r0, [sp, #4]
 1767 0008 8B46     		mov	fp, r1
 1768 000a 9246     		mov	r10, r2
 500:Core/Src/SPI_TFT_ILI9341.c ****     do {
 1769              		.loc 1 500 5 is_stmt 1 view .LVU500
 500:Core/Src/SPI_TFT_ILI9341.c ****     do {
 1770              		.loc 1 500 9 is_stmt 0 view .LVU501
 1771 000c 5D42     		rsbs	r5, r3, #0
 1772              	.LVL165:
 500:Core/Src/SPI_TFT_ILI9341.c ****     do {
 1773              		.loc 1 500 31 view .LVU502
 1774 000e C3F10103 		rsb	r3, r3, #1
 1775              	.LVL166:
 500:Core/Src/SPI_TFT_ILI9341.c ****     do {
 1776              		.loc 1 500 24 view .LVU503
 1777 0012 5C00     		lsls	r4, r3, #1
 1778              	.LVL167:
 500:Core/Src/SPI_TFT_ILI9341.c ****     do {
 1779              		.loc 1 500 17 view .LVU504
 1780 0014 0026     		movs	r6, #0
 1781 0016 0AE0     		b	.L61
 1782              	.LVL168:
 1783              	.L62:
 500:Core/Src/SPI_TFT_ILI9341.c ****     do {
 1784              		.loc 1 500 17 view .LVU505
 1785 0018 2346     		mov	r3, r4
 1786              	.LVL169:
 1787              	.L59:
 511:Core/Src/SPI_TFT_ILI9341.c ****     } while (x <= 0);
 1788              		.loc 1 511 9 is_stmt 1 view .LVU506
 511:Core/Src/SPI_TFT_ILI9341.c ****     } while (x <= 0);
 1789              		.loc 1 511 12 is_stmt 0 view .LVU507
 1790 001a A542     		cmp	r5, r4
 1791 001c 04DA     		bge	.L64
 511:Core/Src/SPI_TFT_ILI9341.c ****     } while (x <= 0);
 1792              		.loc 1 511 21 is_stmt 1 discriminator 1 view .LVU508
 511:Core/Src/SPI_TFT_ILI9341.c ****     } while (x <= 0);
 1793              		.loc 1 511 33 is_stmt 0 discriminator 1 view .LVU509
 1794 001e 0135     		adds	r5, r5, #1
 1795              	.LVL170:
 511:Core/Src/SPI_TFT_ILI9341.c ****     } while (x <= 0);
 1796              		.loc 1 511 31 discriminator 1 view .LVU510
ARM GAS  /var/folders/gy/djtlh36967g6qz60tx0ltrsw0000gn/T//ccFocqOw.s 			page 49


 1797 0020 6C00     		lsls	r4, r5, #1
 1798              	.LVL171:
 511:Core/Src/SPI_TFT_ILI9341.c ****     } while (x <= 0);
 1799              		.loc 1 511 33 discriminator 1 view .LVU511
 1800 0022 0134     		adds	r4, r4, #1
 511:Core/Src/SPI_TFT_ILI9341.c ****     } while (x <= 0);
 1801              		.loc 1 511 25 discriminator 1 view .LVU512
 1802 0024 1C44     		add	r4, r4, r3
 1803              	.LVL172:
 511:Core/Src/SPI_TFT_ILI9341.c ****     } while (x <= 0);
 1804              		.loc 1 511 25 discriminator 1 view .LVU513
 1805 0026 00E0     		b	.L60
 1806              	.LVL173:
 1807              	.L64:
 511:Core/Src/SPI_TFT_ILI9341.c ****     } while (x <= 0);
 1808              		.loc 1 511 25 discriminator 1 view .LVU514
 1809 0028 1C46     		mov	r4, r3
 1810              	.LVL174:
 1811              	.L60:
 512:Core/Src/SPI_TFT_ILI9341.c **** 
 1812              		.loc 1 512 5 view .LVU515
 1813 002a 002D     		cmp	r5, #0
 1814 002c 2DDC     		bgt	.L66
 1815              	.LVL175:
 1816              	.L61:
 501:Core/Src/SPI_TFT_ILI9341.c ****         SPI_TFT_ILI9341_pixel(handle, x0-x, y0+y, color);
 1817              		.loc 1 501 5 is_stmt 1 view .LVU516
 502:Core/Src/SPI_TFT_ILI9341.c ****         SPI_TFT_ILI9341_pixel(handle, x0+x, y0+y, color);
 1818              		.loc 1 502 9 view .LVU517
 1819 002e ABEB0507 		sub	r7, fp, r5
 1820 0032 06EB0A08 		add	r8, r6, r10
 1821 0036 0C9B     		ldr	r3, [sp, #48]
 1822 0038 4246     		mov	r2, r8
 1823 003a 3946     		mov	r1, r7
 1824 003c 0198     		ldr	r0, [sp, #4]
 1825 003e FFF7FEFF 		bl	SPI_TFT_ILI9341_pixel
 1826              	.LVL176:
 503:Core/Src/SPI_TFT_ILI9341.c ****         SPI_TFT_ILI9341_pixel(handle, x0+x, y0-y, color);
 1827              		.loc 1 503 9 view .LVU518
 1828 0042 05EB0B09 		add	r9, r5, fp
 1829 0046 0C9B     		ldr	r3, [sp, #48]
 1830 0048 4246     		mov	r2, r8
 1831 004a 4946     		mov	r1, r9
 1832 004c 0198     		ldr	r0, [sp, #4]
 1833 004e FFF7FEFF 		bl	SPI_TFT_ILI9341_pixel
 1834              	.LVL177:
 504:Core/Src/SPI_TFT_ILI9341.c ****         SPI_TFT_ILI9341_pixel(handle, x0-x, y0-y, color);
 1835              		.loc 1 504 9 view .LVU519
 1836 0052 AAEB0608 		sub	r8, r10, r6
 1837 0056 0C9B     		ldr	r3, [sp, #48]
 1838 0058 4246     		mov	r2, r8
 1839 005a 4946     		mov	r1, r9
 1840 005c DDF80490 		ldr	r9, [sp, #4]
 1841 0060 4846     		mov	r0, r9
 1842 0062 FFF7FEFF 		bl	SPI_TFT_ILI9341_pixel
 1843              	.LVL178:
 505:Core/Src/SPI_TFT_ILI9341.c ****         e2 = err;
ARM GAS  /var/folders/gy/djtlh36967g6qz60tx0ltrsw0000gn/T//ccFocqOw.s 			page 50


 1844              		.loc 1 505 9 view .LVU520
 1845 0066 0C9B     		ldr	r3, [sp, #48]
 1846 0068 4246     		mov	r2, r8
 1847 006a 3946     		mov	r1, r7
 1848 006c 4846     		mov	r0, r9
 1849 006e FFF7FEFF 		bl	SPI_TFT_ILI9341_pixel
 1850              	.LVL179:
 506:Core/Src/SPI_TFT_ILI9341.c ****         if (e2 <= y) {
 1851              		.loc 1 506 9 view .LVU521
 507:Core/Src/SPI_TFT_ILI9341.c ****             err += ++y*2+1;
 1852              		.loc 1 507 9 view .LVU522
 507:Core/Src/SPI_TFT_ILI9341.c ****             err += ++y*2+1;
 1853              		.loc 1 507 12 is_stmt 0 view .LVU523
 1854 0072 A642     		cmp	r6, r4
 1855 0074 D0DB     		blt	.L62
 508:Core/Src/SPI_TFT_ILI9341.c ****             if (-x == y && e2 <= x) e2 = 0;
 1856              		.loc 1 508 13 is_stmt 1 view .LVU524
 508:Core/Src/SPI_TFT_ILI9341.c ****             if (-x == y && e2 <= x) e2 = 0;
 1857              		.loc 1 508 25 is_stmt 0 view .LVU525
 1858 0076 0136     		adds	r6, r6, #1
 1859              	.LVL180:
 508:Core/Src/SPI_TFT_ILI9341.c ****             if (-x == y && e2 <= x) e2 = 0;
 1860              		.loc 1 508 23 view .LVU526
 1861 0078 7300     		lsls	r3, r6, #1
 508:Core/Src/SPI_TFT_ILI9341.c ****             if (-x == y && e2 <= x) e2 = 0;
 1862              		.loc 1 508 25 view .LVU527
 1863 007a 0133     		adds	r3, r3, #1
 508:Core/Src/SPI_TFT_ILI9341.c ****             if (-x == y && e2 <= x) e2 = 0;
 1864              		.loc 1 508 17 view .LVU528
 1865 007c 2344     		add	r3, r3, r4
 1866              	.LVL181:
 509:Core/Src/SPI_TFT_ILI9341.c ****         }
 1867              		.loc 1 509 13 is_stmt 1 view .LVU529
 509:Core/Src/SPI_TFT_ILI9341.c ****         }
 1868              		.loc 1 509 16 is_stmt 0 view .LVU530
 1869 007e EE42     		cmn	r6, r5
 1870 0080 CBD1     		bne	.L59
 509:Core/Src/SPI_TFT_ILI9341.c ****         }
 1871              		.loc 1 509 25 discriminator 1 view .LVU531
 1872 0082 A542     		cmp	r5, r4
 1873 0084 C9DB     		blt	.L59
 509:Core/Src/SPI_TFT_ILI9341.c ****         }
 1874              		.loc 1 509 40 view .LVU532
 1875 0086 0024     		movs	r4, #0
 1876              	.LVL182:
 509:Core/Src/SPI_TFT_ILI9341.c ****         }
 1877              		.loc 1 509 40 view .LVU533
 1878 0088 C7E7     		b	.L59
 1879              	.LVL183:
 1880              	.L66:
 514:Core/Src/SPI_TFT_ILI9341.c **** 
 1881              		.loc 1 514 1 view .LVU534
 1882 008a 03B0     		add	sp, sp, #12
 1883              	.LCFI20:
 1884              		.cfi_def_cfa_offset 36
 1885              		@ sp needed
 1886 008c BDE8F08F 		pop	{r4, r5, r6, r7, r8, r9, r10, fp, pc}
ARM GAS  /var/folders/gy/djtlh36967g6qz60tx0ltrsw0000gn/T//ccFocqOw.s 			page 51


 514:Core/Src/SPI_TFT_ILI9341.c **** 
 1887              		.loc 1 514 1 view .LVU535
 1888              		.cfi_endproc
 1889              	.LFE13:
 1891              		.section	.text.SPI_TFT_ILI9341_fillcircle,"ax",%progbits
 1892              		.align	1
 1893              		.global	SPI_TFT_ILI9341_fillcircle
 1894              		.syntax unified
 1895              		.thumb
 1896              		.thumb_func
 1897              		.fpu fpv5-d16
 1899              	SPI_TFT_ILI9341_fillcircle:
 1900              	.LVL184:
 1901              	.LFB14:
 517:Core/Src/SPI_TFT_ILI9341.c ****     int x = -r, y = 0, err = 2-2*r, e2;
 1902              		.loc 1 517 1 is_stmt 1 view -0
 1903              		.cfi_startproc
 1904              		@ args = 4, pretend = 0, frame = 8
 1905              		@ frame_needed = 0, uses_anonymous_args = 0
 517:Core/Src/SPI_TFT_ILI9341.c ****     int x = -r, y = 0, err = 2-2*r, e2;
 1906              		.loc 1 517 1 is_stmt 0 view .LVU537
 1907 0000 2DE9F04F 		push	{r4, r5, r6, r7, r8, r9, r10, fp, lr}
 1908              	.LCFI21:
 1909              		.cfi_def_cfa_offset 36
 1910              		.cfi_offset 4, -36
 1911              		.cfi_offset 5, -32
 1912              		.cfi_offset 6, -28
 1913              		.cfi_offset 7, -24
 1914              		.cfi_offset 8, -20
 1915              		.cfi_offset 9, -16
 1916              		.cfi_offset 10, -12
 1917              		.cfi_offset 11, -8
 1918              		.cfi_offset 14, -4
 1919 0004 85B0     		sub	sp, sp, #20
 1920              	.LCFI22:
 1921              		.cfi_def_cfa_offset 56
 1922 0006 0390     		str	r0, [sp, #12]
 1923 0008 8B46     		mov	fp, r1
 1924 000a 9246     		mov	r10, r2
 1925 000c DDF83890 		ldr	r9, [sp, #56]
 518:Core/Src/SPI_TFT_ILI9341.c ****     do {
 1926              		.loc 1 518 5 is_stmt 1 view .LVU538
 518:Core/Src/SPI_TFT_ILI9341.c ****     do {
 1927              		.loc 1 518 9 is_stmt 0 view .LVU539
 1928 0010 5D42     		rsbs	r5, r3, #0
 1929              	.LVL185:
 518:Core/Src/SPI_TFT_ILI9341.c ****     do {
 1930              		.loc 1 518 31 view .LVU540
 1931 0012 C3F10103 		rsb	r3, r3, #1
 1932              	.LVL186:
 518:Core/Src/SPI_TFT_ILI9341.c ****     do {
 1933              		.loc 1 518 24 view .LVU541
 1934 0016 5C00     		lsls	r4, r3, #1
 1935              	.LVL187:
 518:Core/Src/SPI_TFT_ILI9341.c ****     do {
 1936              		.loc 1 518 17 view .LVU542
 1937 0018 0026     		movs	r6, #0
ARM GAS  /var/folders/gy/djtlh36967g6qz60tx0ltrsw0000gn/T//ccFocqOw.s 			page 52


 1938 001a 0AE0     		b	.L70
 1939              	.LVL188:
 1940              	.L71:
 518:Core/Src/SPI_TFT_ILI9341.c ****     do {
 1941              		.loc 1 518 17 view .LVU543
 1942 001c 2346     		mov	r3, r4
 1943              	.LVL189:
 1944              	.L68:
 527:Core/Src/SPI_TFT_ILI9341.c ****     } while (x <= 0);
 1945              		.loc 1 527 9 is_stmt 1 view .LVU544
 527:Core/Src/SPI_TFT_ILI9341.c ****     } while (x <= 0);
 1946              		.loc 1 527 12 is_stmt 0 view .LVU545
 1947 001e A542     		cmp	r5, r4
 1948 0020 04DA     		bge	.L73
 527:Core/Src/SPI_TFT_ILI9341.c ****     } while (x <= 0);
 1949              		.loc 1 527 21 is_stmt 1 discriminator 1 view .LVU546
 527:Core/Src/SPI_TFT_ILI9341.c ****     } while (x <= 0);
 1950              		.loc 1 527 33 is_stmt 0 discriminator 1 view .LVU547
 1951 0022 0135     		adds	r5, r5, #1
 1952              	.LVL190:
 527:Core/Src/SPI_TFT_ILI9341.c ****     } while (x <= 0);
 1953              		.loc 1 527 31 discriminator 1 view .LVU548
 1954 0024 6C00     		lsls	r4, r5, #1
 1955              	.LVL191:
 527:Core/Src/SPI_TFT_ILI9341.c ****     } while (x <= 0);
 1956              		.loc 1 527 33 discriminator 1 view .LVU549
 1957 0026 0134     		adds	r4, r4, #1
 527:Core/Src/SPI_TFT_ILI9341.c ****     } while (x <= 0);
 1958              		.loc 1 527 25 discriminator 1 view .LVU550
 1959 0028 1C44     		add	r4, r4, r3
 1960              	.LVL192:
 527:Core/Src/SPI_TFT_ILI9341.c ****     } while (x <= 0);
 1961              		.loc 1 527 25 discriminator 1 view .LVU551
 1962 002a 00E0     		b	.L69
 1963              	.LVL193:
 1964              	.L73:
 527:Core/Src/SPI_TFT_ILI9341.c ****     } while (x <= 0);
 1965              		.loc 1 527 25 discriminator 1 view .LVU552
 1966 002c 1C46     		mov	r4, r3
 1967              	.LVL194:
 1968              	.L69:
 528:Core/Src/SPI_TFT_ILI9341.c **** }
 1969              		.loc 1 528 5 view .LVU553
 1970 002e 002D     		cmp	r5, #0
 1971 0030 21DC     		bgt	.L75
 1972              	.LVL195:
 1973              	.L70:
 519:Core/Src/SPI_TFT_ILI9341.c ****         vline(handle, x0-x, y0-y, y0+y, color);
 1974              		.loc 1 519 5 is_stmt 1 view .LVU554
 520:Core/Src/SPI_TFT_ILI9341.c ****         vline(handle, x0+x, y0-y, y0+y, color);
 1975              		.loc 1 520 9 view .LVU555
 1976 0032 AAEB0607 		sub	r7, r10, r6
 1977 0036 06EB0A08 		add	r8, r6, r10
 1978 003a CDF80090 		str	r9, [sp]
 1979 003e 4346     		mov	r3, r8
 1980 0040 3A46     		mov	r2, r7
 1981 0042 ABEB0501 		sub	r1, fp, r5
ARM GAS  /var/folders/gy/djtlh36967g6qz60tx0ltrsw0000gn/T//ccFocqOw.s 			page 53


 1982 0046 0398     		ldr	r0, [sp, #12]
 1983 0048 FFF7FEFF 		bl	vline
 1984              	.LVL196:
 521:Core/Src/SPI_TFT_ILI9341.c ****         e2 = err;
 1985              		.loc 1 521 9 view .LVU556
 1986 004c CDF80090 		str	r9, [sp]
 1987 0050 4346     		mov	r3, r8
 1988 0052 3A46     		mov	r2, r7
 1989 0054 05EB0B01 		add	r1, r5, fp
 1990 0058 0398     		ldr	r0, [sp, #12]
 1991 005a FFF7FEFF 		bl	vline
 1992              	.LVL197:
 522:Core/Src/SPI_TFT_ILI9341.c ****         if (e2 <= y) {
 1993              		.loc 1 522 9 view .LVU557
 523:Core/Src/SPI_TFT_ILI9341.c ****             err += ++y*2+1;
 1994              		.loc 1 523 9 view .LVU558
 523:Core/Src/SPI_TFT_ILI9341.c ****             err += ++y*2+1;
 1995              		.loc 1 523 12 is_stmt 0 view .LVU559
 1996 005e A642     		cmp	r6, r4
 1997 0060 DCDB     		blt	.L71
 524:Core/Src/SPI_TFT_ILI9341.c ****             if (-x == y && e2 <= x) e2 = 0;
 1998              		.loc 1 524 13 is_stmt 1 view .LVU560
 524:Core/Src/SPI_TFT_ILI9341.c ****             if (-x == y && e2 <= x) e2 = 0;
 1999              		.loc 1 524 25 is_stmt 0 view .LVU561
 2000 0062 0136     		adds	r6, r6, #1
 2001              	.LVL198:
 524:Core/Src/SPI_TFT_ILI9341.c ****             if (-x == y && e2 <= x) e2 = 0;
 2002              		.loc 1 524 23 view .LVU562
 2003 0064 7300     		lsls	r3, r6, #1
 524:Core/Src/SPI_TFT_ILI9341.c ****             if (-x == y && e2 <= x) e2 = 0;
 2004              		.loc 1 524 25 view .LVU563
 2005 0066 0133     		adds	r3, r3, #1
 524:Core/Src/SPI_TFT_ILI9341.c ****             if (-x == y && e2 <= x) e2 = 0;
 2006              		.loc 1 524 17 view .LVU564
 2007 0068 2344     		add	r3, r3, r4
 2008              	.LVL199:
 525:Core/Src/SPI_TFT_ILI9341.c ****         }
 2009              		.loc 1 525 13 is_stmt 1 view .LVU565
 525:Core/Src/SPI_TFT_ILI9341.c ****         }
 2010              		.loc 1 525 16 is_stmt 0 view .LVU566
 2011 006a EE42     		cmn	r6, r5
 2012 006c D7D1     		bne	.L68
 525:Core/Src/SPI_TFT_ILI9341.c ****         }
 2013              		.loc 1 525 25 discriminator 1 view .LVU567
 2014 006e A542     		cmp	r5, r4
 2015 0070 D5DB     		blt	.L68
 525:Core/Src/SPI_TFT_ILI9341.c ****         }
 2016              		.loc 1 525 40 view .LVU568
 2017 0072 0024     		movs	r4, #0
 2018              	.LVL200:
 525:Core/Src/SPI_TFT_ILI9341.c ****         }
 2019              		.loc 1 525 40 view .LVU569
 2020 0074 D3E7     		b	.L68
 2021              	.LVL201:
 2022              	.L75:
 529:Core/Src/SPI_TFT_ILI9341.c **** 
 2023              		.loc 1 529 1 view .LVU570
ARM GAS  /var/folders/gy/djtlh36967g6qz60tx0ltrsw0000gn/T//ccFocqOw.s 			page 54


 2024 0076 05B0     		add	sp, sp, #20
 2025              	.LCFI23:
 2026              		.cfi_def_cfa_offset 36
 2027              		@ sp needed
 2028 0078 BDE8F08F 		pop	{r4, r5, r6, r7, r8, r9, r10, fp, pc}
 529:Core/Src/SPI_TFT_ILI9341.c **** 
 2029              		.loc 1 529 1 view .LVU571
 2030              		.cfi_endproc
 2031              	.LFE14:
 2033              		.section	.text.SPI_TFT_ILI9341_line,"ax",%progbits
 2034              		.align	1
 2035              		.global	SPI_TFT_ILI9341_line
 2036              		.syntax unified
 2037              		.thumb
 2038              		.thumb_func
 2039              		.fpu fpv5-d16
 2041              	SPI_TFT_ILI9341_line:
 2042              	.LVL202:
 2043              	.LFB17:
 568:Core/Src/SPI_TFT_ILI9341.c **** 
 569:Core/Src/SPI_TFT_ILI9341.c **** 
 570:Core/Src/SPI_TFT_ILI9341.c **** void SPI_TFT_ILI9341_line(SPI_TFT_ILI9341_DriverStruct *handle, int x0, int y0, int x1, int y1, int
 571:Core/Src/SPI_TFT_ILI9341.c **** {
 2044              		.loc 1 571 1 is_stmt 1 view -0
 2045              		.cfi_startproc
 2046              		@ args = 8, pretend = 0, frame = 8
 2047              		@ frame_needed = 0, uses_anonymous_args = 0
 2048              		.loc 1 571 1 is_stmt 0 view .LVU573
 2049 0000 2DE9F04F 		push	{r4, r5, r6, r7, r8, r9, r10, fp, lr}
 2050              	.LCFI24:
 2051              		.cfi_def_cfa_offset 36
 2052              		.cfi_offset 4, -36
 2053              		.cfi_offset 5, -32
 2054              		.cfi_offset 6, -28
 2055              		.cfi_offset 7, -24
 2056              		.cfi_offset 8, -20
 2057              		.cfi_offset 9, -16
 2058              		.cfi_offset 10, -12
 2059              		.cfi_offset 11, -8
 2060              		.cfi_offset 14, -4
 2061 0004 85B0     		sub	sp, sp, #20
 2062              	.LCFI25:
 2063              		.cfi_def_cfa_offset 56
 2064 0006 0390     		str	r0, [sp, #12]
 2065 0008 0C46     		mov	r4, r1
 2066 000a 1546     		mov	r5, r2
 2067 000c 1E46     		mov	r6, r3
 2068 000e 0E9F     		ldr	r7, [sp, #56]
 572:Core/Src/SPI_TFT_ILI9341.c ****     //WindowMax();
 573:Core/Src/SPI_TFT_ILI9341.c ****     int   dx = 0, dy = 0;
 2069              		.loc 1 573 5 is_stmt 1 view .LVU574
 2070              	.LVL203:
 574:Core/Src/SPI_TFT_ILI9341.c ****     int   dx_sym = 0, dy_sym = 0;
 2071              		.loc 1 574 5 view .LVU575
 575:Core/Src/SPI_TFT_ILI9341.c ****     int   dx_x2 = 0, dy_x2 = 0;
 2072              		.loc 1 575 5 view .LVU576
 576:Core/Src/SPI_TFT_ILI9341.c ****     int   di = 0;
ARM GAS  /var/folders/gy/djtlh36967g6qz60tx0ltrsw0000gn/T//ccFocqOw.s 			page 55


 2073              		.loc 1 576 5 view .LVU577
 577:Core/Src/SPI_TFT_ILI9341.c **** 
 578:Core/Src/SPI_TFT_ILI9341.c ****     dx = x1-x0;
 2074              		.loc 1 578 5 view .LVU578
 579:Core/Src/SPI_TFT_ILI9341.c ****     dy = y1-y0;
 2075              		.loc 1 579 5 view .LVU579
 2076              		.loc 1 579 8 is_stmt 0 view .LVU580
 2077 0010 BB1A     		subs	r3, r7, r2
 2078              	.LVL204:
 580:Core/Src/SPI_TFT_ILI9341.c **** 
 581:Core/Src/SPI_TFT_ILI9341.c ****     if (dx == 0) {        /* vertical line */
 2079              		.loc 1 581 5 is_stmt 1 view .LVU581
 2080              		.loc 1 581 8 is_stmt 0 view .LVU582
 2081 0012 721A     		subs	r2, r6, r1
 2082              	.LVL205:
 2083              		.loc 1 581 8 view .LVU583
 2084 0014 15D0     		beq	.L98
 582:Core/Src/SPI_TFT_ILI9341.c ****         if (y1 > y0) vline(handle,x0,y0,y1,color);
 583:Core/Src/SPI_TFT_ILI9341.c ****         else vline(handle,x0,y1,y0,color);
 584:Core/Src/SPI_TFT_ILI9341.c ****         return;
 585:Core/Src/SPI_TFT_ILI9341.c ****     }
 586:Core/Src/SPI_TFT_ILI9341.c **** 
 587:Core/Src/SPI_TFT_ILI9341.c ****     if (dx > 0) {
 2085              		.loc 1 587 5 is_stmt 1 view .LVU584
 2086              		.loc 1 587 8 is_stmt 0 view .LVU585
 2087 0016 002A     		cmp	r2, #0
 2088 0018 24DD     		ble	.L95
 588:Core/Src/SPI_TFT_ILI9341.c ****         dx_sym = 1;
 2089              		.loc 1 588 16 view .LVU586
 2090 001a 4FF00108 		mov	r8, #1
 2091              	.L81:
 2092              	.LVL206:
 589:Core/Src/SPI_TFT_ILI9341.c ****     } else {
 590:Core/Src/SPI_TFT_ILI9341.c ****         dx_sym = -1;
 591:Core/Src/SPI_TFT_ILI9341.c ****     }
 592:Core/Src/SPI_TFT_ILI9341.c ****     if (dy == 0) {        /* horizontal line */
 2093              		.loc 1 592 5 is_stmt 1 view .LVU587
 2094              		.loc 1 592 8 is_stmt 0 view .LVU588
 2095 001e 23B3     		cbz	r3, .L99
 593:Core/Src/SPI_TFT_ILI9341.c ****         if (x1 > x0) hline(handle,x0,x1,y0,color);
 594:Core/Src/SPI_TFT_ILI9341.c ****         else  hline(handle,x1,x0,y0,color);
 595:Core/Src/SPI_TFT_ILI9341.c ****         return;
 596:Core/Src/SPI_TFT_ILI9341.c ****     }
 597:Core/Src/SPI_TFT_ILI9341.c **** 
 598:Core/Src/SPI_TFT_ILI9341.c ****     if (dy > 0) {
 2096              		.loc 1 598 5 is_stmt 1 view .LVU589
 2097              		.loc 1 598 8 is_stmt 0 view .LVU590
 2098 0020 002B     		cmp	r3, #0
 2099 0022 36DD     		ble	.L96
 599:Core/Src/SPI_TFT_ILI9341.c ****         dy_sym = 1;
 2100              		.loc 1 599 16 view .LVU591
 2101 0024 4FF00109 		mov	r9, #1
 2102              	.L85:
 2103              	.LVL207:
 600:Core/Src/SPI_TFT_ILI9341.c ****     } else {
 601:Core/Src/SPI_TFT_ILI9341.c ****         dy_sym = -1;
 602:Core/Src/SPI_TFT_ILI9341.c ****     }
ARM GAS  /var/folders/gy/djtlh36967g6qz60tx0ltrsw0000gn/T//ccFocqOw.s 			page 56


 603:Core/Src/SPI_TFT_ILI9341.c **** 
 604:Core/Src/SPI_TFT_ILI9341.c ****     dx = dx_sym*dx;
 2104              		.loc 1 604 5 is_stmt 1 view .LVU592
 2105              		.loc 1 604 8 is_stmt 0 view .LVU593
 2106 0028 02FB08F2 		mul	r2, r2, r8
 2107              	.LVL208:
 605:Core/Src/SPI_TFT_ILI9341.c ****     dy = dy_sym*dy;
 2108              		.loc 1 605 5 is_stmt 1 view .LVU594
 2109              		.loc 1 605 8 is_stmt 0 view .LVU595
 2110 002c 03FB09F3 		mul	r3, r3, r9
 2111              	.LVL209:
 606:Core/Src/SPI_TFT_ILI9341.c **** 
 607:Core/Src/SPI_TFT_ILI9341.c ****     dx_x2 = dx*2;
 2112              		.loc 1 607 5 is_stmt 1 view .LVU596
 2113              		.loc 1 607 11 is_stmt 0 view .LVU597
 2114 0030 4FEA420A 		lsl	r10, r2, #1
 2115              	.LVL210:
 608:Core/Src/SPI_TFT_ILI9341.c ****     dy_x2 = dy*2;
 2116              		.loc 1 608 5 is_stmt 1 view .LVU598
 2117              		.loc 1 608 11 is_stmt 0 view .LVU599
 2118 0034 4FEA430B 		lsl	fp, r3, #1
 2119              	.LVL211:
 609:Core/Src/SPI_TFT_ILI9341.c **** 
 610:Core/Src/SPI_TFT_ILI9341.c ****     if (dx >= dy) {
 2120              		.loc 1 610 5 is_stmt 1 view .LVU600
 2121              		.loc 1 610 8 is_stmt 0 view .LVU601
 2122 0038 9A42     		cmp	r2, r3
 2123 003a 47DB     		blt	.L86
 611:Core/Src/SPI_TFT_ILI9341.c ****         di = dy_x2 - dx;
 2124              		.loc 1 611 9 is_stmt 1 view .LVU602
 2125              		.loc 1 611 12 is_stmt 0 view .LVU603
 2126 003c ABEB0207 		sub	r7, fp, r2
 2127              	.LVL212:
 612:Core/Src/SPI_TFT_ILI9341.c ****         while (x0 != x1) {
 2128              		.loc 1 612 9 is_stmt 1 view .LVU604
 2129              		.loc 1 612 15 is_stmt 0 view .LVU605
 2130 0040 2BE0     		b	.L87
 2131              	.LVL213:
 2132              	.L98:
 582:Core/Src/SPI_TFT_ILI9341.c ****         else vline(handle,x0,y1,y0,color);
 2133              		.loc 1 582 9 is_stmt 1 view .LVU606
 582:Core/Src/SPI_TFT_ILI9341.c ****         else vline(handle,x0,y1,y0,color);
 2134              		.loc 1 582 12 is_stmt 0 view .LVU607
 2135 0042 AF42     		cmp	r7, r5
 2136 0044 06DD     		ble	.L78
 582:Core/Src/SPI_TFT_ILI9341.c ****         else vline(handle,x0,y1,y0,color);
 2137              		.loc 1 582 22 is_stmt 1 discriminator 1 view .LVU608
 2138 0046 0F9B     		ldr	r3, [sp, #60]
 2139              	.LVL214:
 582:Core/Src/SPI_TFT_ILI9341.c ****         else vline(handle,x0,y1,y0,color);
 2140              		.loc 1 582 22 is_stmt 0 discriminator 1 view .LVU609
 2141 0048 0093     		str	r3, [sp]
 2142 004a 3B46     		mov	r3, r7
 2143 004c 2A46     		mov	r2, r5
 2144              	.LVL215:
 582:Core/Src/SPI_TFT_ILI9341.c ****         else vline(handle,x0,y1,y0,color);
 2145              		.loc 1 582 22 discriminator 1 view .LVU610
ARM GAS  /var/folders/gy/djtlh36967g6qz60tx0ltrsw0000gn/T//ccFocqOw.s 			page 57


 2146 004e FFF7FEFF 		bl	vline
 2147              	.LVL216:
 582:Core/Src/SPI_TFT_ILI9341.c ****         else vline(handle,x0,y1,y0,color);
 2148              		.loc 1 582 22 discriminator 1 view .LVU611
 2149 0052 38E0     		b	.L76
 2150              	.LVL217:
 2151              	.L78:
 583:Core/Src/SPI_TFT_ILI9341.c ****         return;
 2152              		.loc 1 583 14 is_stmt 1 view .LVU612
 2153 0054 0F9B     		ldr	r3, [sp, #60]
 2154              	.LVL218:
 583:Core/Src/SPI_TFT_ILI9341.c ****         return;
 2155              		.loc 1 583 14 is_stmt 0 view .LVU613
 2156 0056 0093     		str	r3, [sp]
 2157 0058 2B46     		mov	r3, r5
 2158 005a 3A46     		mov	r2, r7
 2159              	.LVL219:
 583:Core/Src/SPI_TFT_ILI9341.c ****         return;
 2160              		.loc 1 583 14 view .LVU614
 2161 005c 0398     		ldr	r0, [sp, #12]
 2162              	.LVL220:
 583:Core/Src/SPI_TFT_ILI9341.c ****         return;
 2163              		.loc 1 583 14 view .LVU615
 2164 005e FFF7FEFF 		bl	vline
 2165              	.LVL221:
 584:Core/Src/SPI_TFT_ILI9341.c ****     }
 2166              		.loc 1 584 9 is_stmt 1 view .LVU616
 2167 0062 30E0     		b	.L76
 2168              	.LVL222:
 2169              	.L95:
 590:Core/Src/SPI_TFT_ILI9341.c ****     }
 2170              		.loc 1 590 16 is_stmt 0 view .LVU617
 2171 0064 4FF0FF38 		mov	r8, #-1
 2172 0068 D9E7     		b	.L81
 2173              	.LVL223:
 2174              	.L99:
 593:Core/Src/SPI_TFT_ILI9341.c ****         else  hline(handle,x1,x0,y0,color);
 2175              		.loc 1 593 9 is_stmt 1 view .LVU618
 593:Core/Src/SPI_TFT_ILI9341.c ****         else  hline(handle,x1,x0,y0,color);
 2176              		.loc 1 593 12 is_stmt 0 view .LVU619
 2177 006a A642     		cmp	r6, r4
 2178 006c 08DD     		ble	.L83
 593:Core/Src/SPI_TFT_ILI9341.c ****         else  hline(handle,x1,x0,y0,color);
 2179              		.loc 1 593 22 is_stmt 1 discriminator 1 view .LVU620
 2180 006e 0F9B     		ldr	r3, [sp, #60]
 2181              	.LVL224:
 593:Core/Src/SPI_TFT_ILI9341.c ****         else  hline(handle,x1,x0,y0,color);
 2182              		.loc 1 593 22 is_stmt 0 discriminator 1 view .LVU621
 2183 0070 0093     		str	r3, [sp]
 2184 0072 2B46     		mov	r3, r5
 2185 0074 3246     		mov	r2, r6
 2186              	.LVL225:
 593:Core/Src/SPI_TFT_ILI9341.c ****         else  hline(handle,x1,x0,y0,color);
 2187              		.loc 1 593 22 discriminator 1 view .LVU622
 2188 0076 2146     		mov	r1, r4
 2189              	.LVL226:
 593:Core/Src/SPI_TFT_ILI9341.c ****         else  hline(handle,x1,x0,y0,color);
ARM GAS  /var/folders/gy/djtlh36967g6qz60tx0ltrsw0000gn/T//ccFocqOw.s 			page 58


 2190              		.loc 1 593 22 discriminator 1 view .LVU623
 2191 0078 0398     		ldr	r0, [sp, #12]
 2192              	.LVL227:
 593:Core/Src/SPI_TFT_ILI9341.c ****         else  hline(handle,x1,x0,y0,color);
 2193              		.loc 1 593 22 discriminator 1 view .LVU624
 2194 007a FFF7FEFF 		bl	hline
 2195              	.LVL228:
 2196 007e 22E0     		b	.L76
 2197              	.LVL229:
 2198              	.L83:
 594:Core/Src/SPI_TFT_ILI9341.c ****         return;
 2199              		.loc 1 594 15 is_stmt 1 view .LVU625
 2200 0080 0F9B     		ldr	r3, [sp, #60]
 2201              	.LVL230:
 594:Core/Src/SPI_TFT_ILI9341.c ****         return;
 2202              		.loc 1 594 15 is_stmt 0 view .LVU626
 2203 0082 0093     		str	r3, [sp]
 2204 0084 2B46     		mov	r3, r5
 2205 0086 2246     		mov	r2, r4
 2206              	.LVL231:
 594:Core/Src/SPI_TFT_ILI9341.c ****         return;
 2207              		.loc 1 594 15 view .LVU627
 2208 0088 3146     		mov	r1, r6
 2209              	.LVL232:
 594:Core/Src/SPI_TFT_ILI9341.c ****         return;
 2210              		.loc 1 594 15 view .LVU628
 2211 008a 0398     		ldr	r0, [sp, #12]
 2212              	.LVL233:
 594:Core/Src/SPI_TFT_ILI9341.c ****         return;
 2213              		.loc 1 594 15 view .LVU629
 2214 008c FFF7FEFF 		bl	hline
 2215              	.LVL234:
 595:Core/Src/SPI_TFT_ILI9341.c ****     }
 2216              		.loc 1 595 9 is_stmt 1 view .LVU630
 2217 0090 19E0     		b	.L76
 2218              	.LVL235:
 2219              	.L96:
 601:Core/Src/SPI_TFT_ILI9341.c ****     }
 2220              		.loc 1 601 16 is_stmt 0 view .LVU631
 2221 0092 4FF0FF39 		mov	r9, #-1
 2222 0096 C7E7     		b	.L85
 2223              	.LVL236:
 2224              	.L101:
 613:Core/Src/SPI_TFT_ILI9341.c **** 
 614:Core/Src/SPI_TFT_ILI9341.c ****             SPI_TFT_ILI9341_pixel(handle, x0, y0, color);
 615:Core/Src/SPI_TFT_ILI9341.c ****             x0 += dx_sym;
 616:Core/Src/SPI_TFT_ILI9341.c ****             if (di<0) {
 617:Core/Src/SPI_TFT_ILI9341.c ****                 di += dy_x2;
 2225              		.loc 1 617 17 is_stmt 1 view .LVU632
 2226              		.loc 1 617 20 is_stmt 0 view .LVU633
 2227 0098 5F44     		add	r7, r7, fp
 2228              	.LVL237:
 2229              	.L87:
 612:Core/Src/SPI_TFT_ILI9341.c **** 
 2230              		.loc 1 612 15 view .LVU634
 2231 009a B442     		cmp	r4, r6
 2232 009c 0DD0     		beq	.L100
ARM GAS  /var/folders/gy/djtlh36967g6qz60tx0ltrsw0000gn/T//ccFocqOw.s 			page 59


 614:Core/Src/SPI_TFT_ILI9341.c ****             x0 += dx_sym;
 2233              		.loc 1 614 13 is_stmt 1 view .LVU635
 2234 009e 0F9B     		ldr	r3, [sp, #60]
 2235 00a0 2A46     		mov	r2, r5
 2236 00a2 2146     		mov	r1, r4
 2237 00a4 0398     		ldr	r0, [sp, #12]
 2238 00a6 FFF7FEFF 		bl	SPI_TFT_ILI9341_pixel
 2239              	.LVL238:
 615:Core/Src/SPI_TFT_ILI9341.c ****             if (di<0) {
 2240              		.loc 1 615 13 view .LVU636
 615:Core/Src/SPI_TFT_ILI9341.c ****             if (di<0) {
 2241              		.loc 1 615 16 is_stmt 0 view .LVU637
 2242 00aa 4444     		add	r4, r4, r8
 2243              	.LVL239:
 616:Core/Src/SPI_TFT_ILI9341.c ****                 di += dy_x2;
 2244              		.loc 1 616 13 is_stmt 1 view .LVU638
 616:Core/Src/SPI_TFT_ILI9341.c ****                 di += dy_x2;
 2245              		.loc 1 616 16 is_stmt 0 view .LVU639
 2246 00ac 002F     		cmp	r7, #0
 2247 00ae F3DB     		blt	.L101
 618:Core/Src/SPI_TFT_ILI9341.c ****             } else {
 619:Core/Src/SPI_TFT_ILI9341.c ****                 di += dy_x2 - dx_x2;
 2248              		.loc 1 619 17 is_stmt 1 view .LVU640
 2249              		.loc 1 619 29 is_stmt 0 view .LVU641
 2250 00b0 ABEB0A03 		sub	r3, fp, r10
 2251              		.loc 1 619 20 view .LVU642
 2252 00b4 1F44     		add	r7, r7, r3
 2253              	.LVL240:
 620:Core/Src/SPI_TFT_ILI9341.c ****                 y0 += dy_sym;
 2254              		.loc 1 620 17 is_stmt 1 view .LVU643
 2255              		.loc 1 620 20 is_stmt 0 view .LVU644
 2256 00b6 4D44     		add	r5, r5, r9
 2257              	.LVL241:
 2258              		.loc 1 620 20 view .LVU645
 2259 00b8 EFE7     		b	.L87
 2260              	.L100:
 621:Core/Src/SPI_TFT_ILI9341.c ****             }
 622:Core/Src/SPI_TFT_ILI9341.c ****         }
 623:Core/Src/SPI_TFT_ILI9341.c ****         SPI_TFT_ILI9341_pixel(handle, x0, y0, color);
 2261              		.loc 1 623 9 is_stmt 1 view .LVU646
 2262 00ba 0F9B     		ldr	r3, [sp, #60]
 2263 00bc 2A46     		mov	r2, r5
 2264 00be 2146     		mov	r1, r4
 2265 00c0 0398     		ldr	r0, [sp, #12]
 2266 00c2 FFF7FEFF 		bl	SPI_TFT_ILI9341_pixel
 2267              	.LVL242:
 2268              	.L76:
 624:Core/Src/SPI_TFT_ILI9341.c ****     } else {
 625:Core/Src/SPI_TFT_ILI9341.c ****         di = dx_x2 - dy;
 626:Core/Src/SPI_TFT_ILI9341.c ****         while (y0 != y1) {
 627:Core/Src/SPI_TFT_ILI9341.c ****             SPI_TFT_ILI9341_pixel(handle, x0, y0, color);
 628:Core/Src/SPI_TFT_ILI9341.c ****             y0 += dy_sym;
 629:Core/Src/SPI_TFT_ILI9341.c ****             if (di < 0) {
 630:Core/Src/SPI_TFT_ILI9341.c ****                 di += dx_x2;
 631:Core/Src/SPI_TFT_ILI9341.c ****             } else {
 632:Core/Src/SPI_TFT_ILI9341.c ****                 di += dx_x2 - dy_x2;
 633:Core/Src/SPI_TFT_ILI9341.c ****                 x0 += dx_sym;
ARM GAS  /var/folders/gy/djtlh36967g6qz60tx0ltrsw0000gn/T//ccFocqOw.s 			page 60


 634:Core/Src/SPI_TFT_ILI9341.c ****             }
 635:Core/Src/SPI_TFT_ILI9341.c ****         }
 636:Core/Src/SPI_TFT_ILI9341.c ****         SPI_TFT_ILI9341_pixel(handle, x0, y0, color);
 637:Core/Src/SPI_TFT_ILI9341.c ****     }
 638:Core/Src/SPI_TFT_ILI9341.c ****     return;
 639:Core/Src/SPI_TFT_ILI9341.c **** }
 2269              		.loc 1 639 1 is_stmt 0 view .LVU647
 2270 00c6 05B0     		add	sp, sp, #20
 2271              	.LCFI26:
 2272              		.cfi_remember_state
 2273              		.cfi_def_cfa_offset 36
 2274              		@ sp needed
 2275 00c8 BDE8F08F 		pop	{r4, r5, r6, r7, r8, r9, r10, fp, pc}
 2276              	.LVL243:
 2277              	.L86:
 2278              	.LCFI27:
 2279              		.cfi_restore_state
 625:Core/Src/SPI_TFT_ILI9341.c ****         while (y0 != y1) {
 2280              		.loc 1 625 9 is_stmt 1 view .LVU648
 625:Core/Src/SPI_TFT_ILI9341.c ****         while (y0 != y1) {
 2281              		.loc 1 625 12 is_stmt 0 view .LVU649
 2282 00cc AAEB0306 		sub	r6, r10, r3
 2283              	.LVL244:
 626:Core/Src/SPI_TFT_ILI9341.c ****             SPI_TFT_ILI9341_pixel(handle, x0, y0, color);
 2284              		.loc 1 626 9 is_stmt 1 view .LVU650
 626:Core/Src/SPI_TFT_ILI9341.c ****             SPI_TFT_ILI9341_pixel(handle, x0, y0, color);
 2285              		.loc 1 626 15 is_stmt 0 view .LVU651
 2286 00d0 00E0     		b	.L91
 2287              	.LVL245:
 2288              	.L103:
 630:Core/Src/SPI_TFT_ILI9341.c ****             } else {
 2289              		.loc 1 630 17 is_stmt 1 view .LVU652
 630:Core/Src/SPI_TFT_ILI9341.c ****             } else {
 2290              		.loc 1 630 20 is_stmt 0 view .LVU653
 2291 00d2 5644     		add	r6, r6, r10
 2292              	.LVL246:
 2293              	.L91:
 626:Core/Src/SPI_TFT_ILI9341.c ****             SPI_TFT_ILI9341_pixel(handle, x0, y0, color);
 2294              		.loc 1 626 15 view .LVU654
 2295 00d4 BD42     		cmp	r5, r7
 2296 00d6 0DD0     		beq	.L102
 627:Core/Src/SPI_TFT_ILI9341.c ****             y0 += dy_sym;
 2297              		.loc 1 627 13 is_stmt 1 view .LVU655
 2298 00d8 0F9B     		ldr	r3, [sp, #60]
 2299 00da 2A46     		mov	r2, r5
 2300 00dc 2146     		mov	r1, r4
 2301 00de 0398     		ldr	r0, [sp, #12]
 2302 00e0 FFF7FEFF 		bl	SPI_TFT_ILI9341_pixel
 2303              	.LVL247:
 628:Core/Src/SPI_TFT_ILI9341.c ****             if (di < 0) {
 2304              		.loc 1 628 13 view .LVU656
 628:Core/Src/SPI_TFT_ILI9341.c ****             if (di < 0) {
 2305              		.loc 1 628 16 is_stmt 0 view .LVU657
 2306 00e4 4D44     		add	r5, r5, r9
 2307              	.LVL248:
 629:Core/Src/SPI_TFT_ILI9341.c ****                 di += dx_x2;
 2308              		.loc 1 629 13 is_stmt 1 view .LVU658
ARM GAS  /var/folders/gy/djtlh36967g6qz60tx0ltrsw0000gn/T//ccFocqOw.s 			page 61


 629:Core/Src/SPI_TFT_ILI9341.c ****                 di += dx_x2;
 2309              		.loc 1 629 16 is_stmt 0 view .LVU659
 2310 00e6 002E     		cmp	r6, #0
 2311 00e8 F3DB     		blt	.L103
 632:Core/Src/SPI_TFT_ILI9341.c ****                 x0 += dx_sym;
 2312              		.loc 1 632 17 is_stmt 1 view .LVU660
 632:Core/Src/SPI_TFT_ILI9341.c ****                 x0 += dx_sym;
 2313              		.loc 1 632 29 is_stmt 0 view .LVU661
 2314 00ea AAEB0B03 		sub	r3, r10, fp
 632:Core/Src/SPI_TFT_ILI9341.c ****                 x0 += dx_sym;
 2315              		.loc 1 632 20 view .LVU662
 2316 00ee 1E44     		add	r6, r6, r3
 2317              	.LVL249:
 633:Core/Src/SPI_TFT_ILI9341.c ****             }
 2318              		.loc 1 633 17 is_stmt 1 view .LVU663
 633:Core/Src/SPI_TFT_ILI9341.c ****             }
 2319              		.loc 1 633 20 is_stmt 0 view .LVU664
 2320 00f0 4444     		add	r4, r4, r8
 2321              	.LVL250:
 633:Core/Src/SPI_TFT_ILI9341.c ****             }
 2322              		.loc 1 633 20 view .LVU665
 2323 00f2 EFE7     		b	.L91
 2324              	.L102:
 636:Core/Src/SPI_TFT_ILI9341.c ****     }
 2325              		.loc 1 636 9 is_stmt 1 view .LVU666
 2326 00f4 0F9B     		ldr	r3, [sp, #60]
 2327 00f6 2A46     		mov	r2, r5
 2328 00f8 2146     		mov	r1, r4
 2329 00fa 0398     		ldr	r0, [sp, #12]
 2330 00fc FFF7FEFF 		bl	SPI_TFT_ILI9341_pixel
 2331              	.LVL251:
 2332 0100 E1E7     		b	.L76
 2333              		.cfi_endproc
 2334              	.LFE17:
 2336              		.section	.text.SPI_TFT_ILI9341_rect,"ax",%progbits
 2337              		.align	1
 2338              		.global	SPI_TFT_ILI9341_rect
 2339              		.syntax unified
 2340              		.thumb
 2341              		.thumb_func
 2342              		.fpu fpv5-d16
 2344              	SPI_TFT_ILI9341_rect:
 2345              	.LVL252:
 2346              	.LFB18:
 640:Core/Src/SPI_TFT_ILI9341.c **** 
 641:Core/Src/SPI_TFT_ILI9341.c **** 
 642:Core/Src/SPI_TFT_ILI9341.c **** void SPI_TFT_ILI9341_rect(SPI_TFT_ILI9341_DriverStruct *handle, int x0, int y0, int x1, int y1, int
 643:Core/Src/SPI_TFT_ILI9341.c **** {
 2347              		.loc 1 643 1 view -0
 2348              		.cfi_startproc
 2349              		@ args = 8, pretend = 0, frame = 0
 2350              		@ frame_needed = 0, uses_anonymous_args = 0
 2351              		.loc 1 643 1 is_stmt 0 view .LVU668
 2352 0000 2DE9F043 		push	{r4, r5, r6, r7, r8, r9, lr}
 2353              	.LCFI28:
 2354              		.cfi_def_cfa_offset 28
 2355              		.cfi_offset 4, -28
ARM GAS  /var/folders/gy/djtlh36967g6qz60tx0ltrsw0000gn/T//ccFocqOw.s 			page 62


 2356              		.cfi_offset 5, -24
 2357              		.cfi_offset 6, -20
 2358              		.cfi_offset 7, -16
 2359              		.cfi_offset 8, -12
 2360              		.cfi_offset 9, -8
 2361              		.cfi_offset 14, -4
 2362 0004 83B0     		sub	sp, sp, #12
 2363              	.LCFI29:
 2364              		.cfi_def_cfa_offset 40
 2365 0006 8046     		mov	r8, r0
 2366 0008 0F46     		mov	r7, r1
 2367 000a 1646     		mov	r6, r2
 2368 000c 1C46     		mov	r4, r3
 2369 000e 0A9D     		ldr	r5, [sp, #40]
 2370 0010 DDF82C90 		ldr	r9, [sp, #44]
 644:Core/Src/SPI_TFT_ILI9341.c **** 
 645:Core/Src/SPI_TFT_ILI9341.c ****     if (x1 > x0) hline(handle,x0,x1,y0,color);
 2371              		.loc 1 645 5 is_stmt 1 view .LVU669
 2372              		.loc 1 645 8 is_stmt 0 view .LVU670
 2373 0014 8B42     		cmp	r3, r1
 2374 0016 26DD     		ble	.L105
 2375              		.loc 1 645 18 is_stmt 1 discriminator 1 view .LVU671
 2376 0018 CDF80090 		str	r9, [sp]
 2377 001c 1346     		mov	r3, r2
 2378              	.LVL253:
 2379              		.loc 1 645 18 is_stmt 0 discriminator 1 view .LVU672
 2380 001e 2246     		mov	r2, r4
 2381              	.LVL254:
 2382              		.loc 1 645 18 discriminator 1 view .LVU673
 2383 0020 FFF7FEFF 		bl	hline
 2384              	.LVL255:
 2385              	.L106:
 646:Core/Src/SPI_TFT_ILI9341.c ****     else  hline(handle,x1,x0,y0,color);
 647:Core/Src/SPI_TFT_ILI9341.c **** 
 648:Core/Src/SPI_TFT_ILI9341.c ****     if (y1 > y0) vline(handle,x0,y0,y1,color);
 2386              		.loc 1 648 5 is_stmt 1 view .LVU674
 2387              		.loc 1 648 8 is_stmt 0 view .LVU675
 2388 0024 AE42     		cmp	r6, r5
 2389 0026 26DA     		bge	.L107
 2390              		.loc 1 648 18 is_stmt 1 discriminator 1 view .LVU676
 2391 0028 CDF80090 		str	r9, [sp]
 2392 002c 2B46     		mov	r3, r5
 2393 002e 3246     		mov	r2, r6
 2394 0030 3946     		mov	r1, r7
 2395 0032 4046     		mov	r0, r8
 2396 0034 FFF7FEFF 		bl	vline
 2397              	.LVL256:
 2398              	.L108:
 649:Core/Src/SPI_TFT_ILI9341.c ****     else vline(handle,x0,y1,y0,color);
 650:Core/Src/SPI_TFT_ILI9341.c **** 
 651:Core/Src/SPI_TFT_ILI9341.c ****     if (x1 > x0) hline(handle,x0,x1,y1,color);
 2399              		.loc 1 651 5 view .LVU677
 2400              		.loc 1 651 8 is_stmt 0 view .LVU678
 2401 0038 BC42     		cmp	r4, r7
 2402 003a 25DD     		ble	.L109
 2403              		.loc 1 651 18 is_stmt 1 discriminator 1 view .LVU679
 2404 003c CDF80090 		str	r9, [sp]
ARM GAS  /var/folders/gy/djtlh36967g6qz60tx0ltrsw0000gn/T//ccFocqOw.s 			page 63


 2405 0040 2B46     		mov	r3, r5
 2406 0042 2246     		mov	r2, r4
 2407 0044 3946     		mov	r1, r7
 2408 0046 4046     		mov	r0, r8
 2409 0048 FFF7FEFF 		bl	hline
 2410              	.LVL257:
 2411              	.L110:
 652:Core/Src/SPI_TFT_ILI9341.c ****     else  hline(handle,x1,x0,y1,color);
 653:Core/Src/SPI_TFT_ILI9341.c **** 
 654:Core/Src/SPI_TFT_ILI9341.c ****     if (y1 > y0) vline(handle,x1,y0,y1,color);
 2412              		.loc 1 654 5 view .LVU680
 2413              		.loc 1 654 8 is_stmt 0 view .LVU681
 2414 004c AE42     		cmp	r6, r5
 2415 004e 24DA     		bge	.L111
 2416              		.loc 1 654 18 is_stmt 1 discriminator 1 view .LVU682
 2417 0050 CDF80090 		str	r9, [sp]
 2418 0054 2B46     		mov	r3, r5
 2419 0056 3246     		mov	r2, r6
 2420 0058 2146     		mov	r1, r4
 2421 005a 4046     		mov	r0, r8
 2422 005c FFF7FEFF 		bl	vline
 2423              	.LVL258:
 2424              	.L104:
 655:Core/Src/SPI_TFT_ILI9341.c ****     else vline(handle,x1,y1,y0,color);
 656:Core/Src/SPI_TFT_ILI9341.c **** 
 657:Core/Src/SPI_TFT_ILI9341.c ****     return;
 658:Core/Src/SPI_TFT_ILI9341.c **** }
 2425              		.loc 1 658 1 is_stmt 0 view .LVU683
 2426 0060 03B0     		add	sp, sp, #12
 2427              	.LCFI30:
 2428              		.cfi_remember_state
 2429              		.cfi_def_cfa_offset 28
 2430              		@ sp needed
 2431 0062 BDE8F083 		pop	{r4, r5, r6, r7, r8, r9, pc}
 2432              	.LVL259:
 2433              	.L105:
 2434              	.LCFI31:
 2435              		.cfi_restore_state
 646:Core/Src/SPI_TFT_ILI9341.c **** 
 2436              		.loc 1 646 11 is_stmt 1 view .LVU684
 2437 0066 CDF80090 		str	r9, [sp]
 2438 006a 1346     		mov	r3, r2
 2439              	.LVL260:
 646:Core/Src/SPI_TFT_ILI9341.c **** 
 2440              		.loc 1 646 11 is_stmt 0 view .LVU685
 2441 006c 0A46     		mov	r2, r1
 2442              	.LVL261:
 646:Core/Src/SPI_TFT_ILI9341.c **** 
 2443              		.loc 1 646 11 view .LVU686
 2444 006e 2146     		mov	r1, r4
 2445              	.LVL262:
 646:Core/Src/SPI_TFT_ILI9341.c **** 
 2446              		.loc 1 646 11 view .LVU687
 2447 0070 FFF7FEFF 		bl	hline
 2448              	.LVL263:
 646:Core/Src/SPI_TFT_ILI9341.c **** 
 2449              		.loc 1 646 11 view .LVU688
ARM GAS  /var/folders/gy/djtlh36967g6qz60tx0ltrsw0000gn/T//ccFocqOw.s 			page 64


 2450 0074 D6E7     		b	.L106
 2451              	.L107:
 649:Core/Src/SPI_TFT_ILI9341.c **** 
 2452              		.loc 1 649 10 is_stmt 1 view .LVU689
 2453 0076 CDF80090 		str	r9, [sp]
 2454 007a 3346     		mov	r3, r6
 2455 007c 2A46     		mov	r2, r5
 2456 007e 3946     		mov	r1, r7
 2457 0080 4046     		mov	r0, r8
 2458 0082 FFF7FEFF 		bl	vline
 2459              	.LVL264:
 2460 0086 D7E7     		b	.L108
 2461              	.L109:
 652:Core/Src/SPI_TFT_ILI9341.c **** 
 2462              		.loc 1 652 11 view .LVU690
 2463 0088 CDF80090 		str	r9, [sp]
 2464 008c 2B46     		mov	r3, r5
 2465 008e 3A46     		mov	r2, r7
 2466 0090 2146     		mov	r1, r4
 2467 0092 4046     		mov	r0, r8
 2468 0094 FFF7FEFF 		bl	hline
 2469              	.LVL265:
 2470 0098 D8E7     		b	.L110
 2471              	.L111:
 655:Core/Src/SPI_TFT_ILI9341.c **** 
 2472              		.loc 1 655 10 view .LVU691
 2473 009a CDF80090 		str	r9, [sp]
 2474 009e 3346     		mov	r3, r6
 2475 00a0 2A46     		mov	r2, r5
 2476 00a2 2146     		mov	r1, r4
 2477 00a4 4046     		mov	r0, r8
 2478 00a6 FFF7FEFF 		bl	vline
 2479              	.LVL266:
 657:Core/Src/SPI_TFT_ILI9341.c **** }
 2480              		.loc 1 657 5 view .LVU692
 2481 00aa D9E7     		b	.L104
 2482              		.cfi_endproc
 2483              	.LFE18:
 2485              		.section	.text.SPI_TFT_ILI9341_fillrect,"ax",%progbits
 2486              		.align	1
 2487              		.global	SPI_TFT_ILI9341_fillrect
 2488              		.syntax unified
 2489              		.thumb
 2490              		.thumb_func
 2491              		.fpu fpv5-d16
 2493              	SPI_TFT_ILI9341_fillrect:
 2494              	.LVL267:
 2495              	.LFB19:
 659:Core/Src/SPI_TFT_ILI9341.c **** 
 660:Core/Src/SPI_TFT_ILI9341.c **** 
 661:Core/Src/SPI_TFT_ILI9341.c **** 
 662:Core/Src/SPI_TFT_ILI9341.c **** void SPI_TFT_ILI9341_fillrect(SPI_TFT_ILI9341_DriverStruct *handle, int x0, int y0, int x1, int y1,
 663:Core/Src/SPI_TFT_ILI9341.c **** {
 2496              		.loc 1 663 1 view -0
 2497              		.cfi_startproc
 2498              		@ args = 8, pretend = 0, frame = 0
 2499              		@ frame_needed = 0, uses_anonymous_args = 0
ARM GAS  /var/folders/gy/djtlh36967g6qz60tx0ltrsw0000gn/T//ccFocqOw.s 			page 65


 2500              		.loc 1 663 1 is_stmt 0 view .LVU694
 2501 0000 2DE9F043 		push	{r4, r5, r6, r7, r8, r9, lr}
 2502              	.LCFI32:
 2503              		.cfi_def_cfa_offset 28
 2504              		.cfi_offset 4, -28
 2505              		.cfi_offset 5, -24
 2506              		.cfi_offset 6, -20
 2507              		.cfi_offset 7, -16
 2508              		.cfi_offset 8, -12
 2509              		.cfi_offset 9, -8
 2510              		.cfi_offset 14, -4
 2511 0004 83B0     		sub	sp, sp, #12
 2512              	.LCFI33:
 2513              		.cfi_def_cfa_offset 40
 2514 0006 8146     		mov	r9, r0
 2515 0008 8846     		mov	r8, r1
 2516 000a 1446     		mov	r4, r2
 2517 000c 1F46     		mov	r7, r3
 2518 000e 0A9D     		ldr	r5, [sp, #40]
 2519 0010 0B9E     		ldr	r6, [sp, #44]
 664:Core/Src/SPI_TFT_ILI9341.c ****     for(; y0<y1; ++y0)
 2520              		.loc 1 664 5 is_stmt 1 view .LVU695
 2521              	.LVL268:
 2522              	.L115:
 2523              		.loc 1 664 5 is_stmt 0 discriminator 1 view .LVU696
 2524 0012 AC42     		cmp	r4, r5
 2525 0014 08DA     		bge	.L118
 665:Core/Src/SPI_TFT_ILI9341.c ****         hline(handle, x0, x1, y0, color);
 2526              		.loc 1 665 9 is_stmt 1 discriminator 2 view .LVU697
 2527 0016 0096     		str	r6, [sp]
 2528 0018 2346     		mov	r3, r4
 2529 001a 3A46     		mov	r2, r7
 2530 001c 4146     		mov	r1, r8
 2531 001e 4846     		mov	r0, r9
 2532 0020 FFF7FEFF 		bl	hline
 2533              	.LVL269:
 664:Core/Src/SPI_TFT_ILI9341.c ****     for(; y0<y1; ++y0)
 2534              		.loc 1 664 18 is_stmt 0 discriminator 2 view .LVU698
 2535 0024 0134     		adds	r4, r4, #1
 2536              	.LVL270:
 664:Core/Src/SPI_TFT_ILI9341.c ****     for(; y0<y1; ++y0)
 2537              		.loc 1 664 18 discriminator 2 view .LVU699
 2538 0026 F4E7     		b	.L115
 2539              	.L118:
 666:Core/Src/SPI_TFT_ILI9341.c **** }
 2540              		.loc 1 666 1 view .LVU700
 2541 0028 03B0     		add	sp, sp, #12
 2542              	.LCFI34:
 2543              		.cfi_def_cfa_offset 28
 2544              		@ sp needed
 2545 002a BDE8F083 		pop	{r4, r5, r6, r7, r8, r9, pc}
 2546              		.loc 1 666 1 view .LVU701
 2547              		.cfi_endproc
 2548              	.LFE19:
 2550              		.section	.text.SPI_TFT_ILI9341_locate,"ax",%progbits
 2551              		.align	1
 2552              		.global	SPI_TFT_ILI9341_locate
ARM GAS  /var/folders/gy/djtlh36967g6qz60tx0ltrsw0000gn/T//ccFocqOw.s 			page 66


 2553              		.syntax unified
 2554              		.thumb
 2555              		.thumb_func
 2556              		.fpu fpv5-d16
 2558              	SPI_TFT_ILI9341_locate:
 2559              	.LVL271:
 2560              	.LFB20:
 667:Core/Src/SPI_TFT_ILI9341.c **** 
 668:Core/Src/SPI_TFT_ILI9341.c **** 
 669:Core/Src/SPI_TFT_ILI9341.c **** void SPI_TFT_ILI9341_locate(SPI_TFT_ILI9341_DriverStruct *handle, int x, int y)
 670:Core/Src/SPI_TFT_ILI9341.c **** {
 2561              		.loc 1 670 1 is_stmt 1 view -0
 2562              		.cfi_startproc
 2563              		@ args = 0, pretend = 0, frame = 0
 2564              		@ frame_needed = 0, uses_anonymous_args = 0
 2565              		@ link register save eliminated.
 671:Core/Src/SPI_TFT_ILI9341.c ****     handle->char_x = x;
 2566              		.loc 1 671 5 view .LVU703
 2567              		.loc 1 671 20 is_stmt 0 view .LVU704
 2568 0000 0162     		str	r1, [r0, #32]
 672:Core/Src/SPI_TFT_ILI9341.c ****     handle->char_y = y;
 2569              		.loc 1 672 5 is_stmt 1 view .LVU705
 2570              		.loc 1 672 20 is_stmt 0 view .LVU706
 2571 0002 4262     		str	r2, [r0, #36]
 673:Core/Src/SPI_TFT_ILI9341.c **** }
 2572              		.loc 1 673 1 view .LVU707
 2573 0004 7047     		bx	lr
 2574              		.cfi_endproc
 2575              	.LFE20:
 2577              		.section	.text.SPI_TFT_ILI9341_columns,"ax",%progbits
 2578              		.align	1
 2579              		.global	SPI_TFT_ILI9341_columns
 2580              		.syntax unified
 2581              		.thumb
 2582              		.thumb_func
 2583              		.fpu fpv5-d16
 2585              	SPI_TFT_ILI9341_columns:
 2586              	.LVL272:
 2587              	.LFB21:
 674:Core/Src/SPI_TFT_ILI9341.c **** 
 675:Core/Src/SPI_TFT_ILI9341.c **** 
 676:Core/Src/SPI_TFT_ILI9341.c **** 
 677:Core/Src/SPI_TFT_ILI9341.c **** int SPI_TFT_ILI9341_columns(SPI_TFT_ILI9341_DriverStruct *handle)
 678:Core/Src/SPI_TFT_ILI9341.c **** {
 2588              		.loc 1 678 1 is_stmt 1 view -0
 2589              		.cfi_startproc
 2590              		@ args = 0, pretend = 0, frame = 0
 2591              		@ frame_needed = 0, uses_anonymous_args = 0
 2592              		.loc 1 678 1 is_stmt 0 view .LVU709
 2593 0000 10B5     		push	{r4, lr}
 2594              	.LCFI35:
 2595              		.cfi_def_cfa_offset 8
 2596              		.cfi_offset 4, -8
 2597              		.cfi_offset 14, -4
 2598 0002 0446     		mov	r4, r0
 679:Core/Src/SPI_TFT_ILI9341.c ****     return SPI_TFT_ILI9341_width(handle) / handle->font[1];
 2599              		.loc 1 679 5 is_stmt 1 view .LVU710
ARM GAS  /var/folders/gy/djtlh36967g6qz60tx0ltrsw0000gn/T//ccFocqOw.s 			page 67


 2600              		.loc 1 679 12 is_stmt 0 view .LVU711
 2601 0004 FFF7FEFF 		bl	SPI_TFT_ILI9341_width
 2602              	.LVL273:
 2603              		.loc 1 679 50 view .LVU712
 2604 0008 6369     		ldr	r3, [r4, #20]
 2605              		.loc 1 679 56 view .LVU713
 2606 000a 5B78     		ldrb	r3, [r3, #1]	@ zero_extendqisi2
 680:Core/Src/SPI_TFT_ILI9341.c **** }
 2607              		.loc 1 680 1 view .LVU714
 2608 000c 90FBF3F0 		sdiv	r0, r0, r3
 2609 0010 10BD     		pop	{r4, pc}
 2610              		.loc 1 680 1 view .LVU715
 2611              		.cfi_endproc
 2612              	.LFE21:
 2614              		.section	.text.SPI_TFT_ILI9341_rows,"ax",%progbits
 2615              		.align	1
 2616              		.global	SPI_TFT_ILI9341_rows
 2617              		.syntax unified
 2618              		.thumb
 2619              		.thumb_func
 2620              		.fpu fpv5-d16
 2622              	SPI_TFT_ILI9341_rows:
 2623              	.LVL274:
 2624              	.LFB22:
 681:Core/Src/SPI_TFT_ILI9341.c **** 
 682:Core/Src/SPI_TFT_ILI9341.c **** 
 683:Core/Src/SPI_TFT_ILI9341.c **** 
 684:Core/Src/SPI_TFT_ILI9341.c **** int SPI_TFT_ILI9341_rows(SPI_TFT_ILI9341_DriverStruct *handle)
 685:Core/Src/SPI_TFT_ILI9341.c **** {
 2625              		.loc 1 685 1 is_stmt 1 view -0
 2626              		.cfi_startproc
 2627              		@ args = 0, pretend = 0, frame = 0
 2628              		@ frame_needed = 0, uses_anonymous_args = 0
 2629              		.loc 1 685 1 is_stmt 0 view .LVU717
 2630 0000 10B5     		push	{r4, lr}
 2631              	.LCFI36:
 2632              		.cfi_def_cfa_offset 8
 2633              		.cfi_offset 4, -8
 2634              		.cfi_offset 14, -4
 2635 0002 0446     		mov	r4, r0
 686:Core/Src/SPI_TFT_ILI9341.c ****     return SPI_TFT_ILI9341_height(handle) / handle->font[2];
 2636              		.loc 1 686 5 is_stmt 1 view .LVU718
 2637              		.loc 1 686 12 is_stmt 0 view .LVU719
 2638 0004 FFF7FEFF 		bl	SPI_TFT_ILI9341_height
 2639              	.LVL275:
 2640              		.loc 1 686 51 view .LVU720
 2641 0008 6369     		ldr	r3, [r4, #20]
 2642              		.loc 1 686 57 view .LVU721
 2643 000a 9B78     		ldrb	r3, [r3, #2]	@ zero_extendqisi2
 687:Core/Src/SPI_TFT_ILI9341.c **** }
 2644              		.loc 1 687 1 view .LVU722
 2645 000c 90FBF3F0 		sdiv	r0, r0, r3
 2646 0010 10BD     		pop	{r4, pc}
 2647              		.loc 1 687 1 view .LVU723
 2648              		.cfi_endproc
 2649              	.LFE22:
 2651              		.section	.text.SPI_TFT_ILI9341_character,"ax",%progbits
ARM GAS  /var/folders/gy/djtlh36967g6qz60tx0ltrsw0000gn/T//ccFocqOw.s 			page 68


 2652              		.align	1
 2653              		.global	SPI_TFT_ILI9341_character
 2654              		.syntax unified
 2655              		.thumb
 2656              		.thumb_func
 2657              		.fpu fpv5-d16
 2659              	SPI_TFT_ILI9341_character:
 2660              	.LVL276:
 2661              	.LFB25:
 688:Core/Src/SPI_TFT_ILI9341.c **** 
 689:Core/Src/SPI_TFT_ILI9341.c **** 
 690:Core/Src/SPI_TFT_ILI9341.c **** int SPI_TFT_ILI9341_printf(SPI_TFT_ILI9341_DriverStruct *handle, const char *format, ...)
 691:Core/Src/SPI_TFT_ILI9341.c **** {
 692:Core/Src/SPI_TFT_ILI9341.c ****     static int n, i;
 693:Core/Src/SPI_TFT_ILI9341.c ****     static char b[PRINTFBUF_SIZ];
 694:Core/Src/SPI_TFT_ILI9341.c **** 
 695:Core/Src/SPI_TFT_ILI9341.c ****     va_list args;
 696:Core/Src/SPI_TFT_ILI9341.c ****     va_start(args, format);
 697:Core/Src/SPI_TFT_ILI9341.c ****     n = vsprintf(b, format, args);
 698:Core/Src/SPI_TFT_ILI9341.c ****     va_end (args);
 699:Core/Src/SPI_TFT_ILI9341.c **** 
 700:Core/Src/SPI_TFT_ILI9341.c ****     if(n <= 0) return n;
 701:Core/Src/SPI_TFT_ILI9341.c ****     if(n > INBUF_SIZ) return -1;
 702:Core/Src/SPI_TFT_ILI9341.c ****     for(i=0; i<n; ++i)
 703:Core/Src/SPI_TFT_ILI9341.c ****         SPI_TFT_ILI9341_putc(handle, b[i]);
 704:Core/Src/SPI_TFT_ILI9341.c ****     return n;
 705:Core/Src/SPI_TFT_ILI9341.c **** }
 706:Core/Src/SPI_TFT_ILI9341.c **** 
 707:Core/Src/SPI_TFT_ILI9341.c **** int SPI_TFT_ILI9341_putc(SPI_TFT_ILI9341_DriverStruct *handle, int value)
 708:Core/Src/SPI_TFT_ILI9341.c **** {
 709:Core/Src/SPI_TFT_ILI9341.c ****     if (value == '\n') {    // new line
 710:Core/Src/SPI_TFT_ILI9341.c ****         handle->char_x = 0;
 711:Core/Src/SPI_TFT_ILI9341.c ****         handle->char_y = handle->char_y + handle->font[2];
 712:Core/Src/SPI_TFT_ILI9341.c ****         if (handle->char_y >= SPI_TFT_ILI9341_height(handle) - handle->font[2]) {
 713:Core/Src/SPI_TFT_ILI9341.c ****             handle->char_y = 0;
 714:Core/Src/SPI_TFT_ILI9341.c ****         }
 715:Core/Src/SPI_TFT_ILI9341.c ****     } else {
 716:Core/Src/SPI_TFT_ILI9341.c ****         SPI_TFT_ILI9341_character(handle, handle->char_x, handle->char_y, value);
 717:Core/Src/SPI_TFT_ILI9341.c ****     }
 718:Core/Src/SPI_TFT_ILI9341.c ****     return value;
 719:Core/Src/SPI_TFT_ILI9341.c **** }
 720:Core/Src/SPI_TFT_ILI9341.c **** 
 721:Core/Src/SPI_TFT_ILI9341.c **** 
 722:Core/Src/SPI_TFT_ILI9341.c **** void SPI_TFT_ILI9341_character(SPI_TFT_ILI9341_DriverStruct *handle, int x, int y, int c)
 723:Core/Src/SPI_TFT_ILI9341.c **** {
 2662              		.loc 1 723 1 is_stmt 1 view -0
 2663              		.cfi_startproc
 2664              		@ args = 0, pretend = 0, frame = 0
 2665              		@ frame_needed = 0, uses_anonymous_args = 0
 724:Core/Src/SPI_TFT_ILI9341.c ****     unsigned int hor,vert,offset,bpl,j,i,b;
 2666              		.loc 1 724 5 view .LVU725
 725:Core/Src/SPI_TFT_ILI9341.c ****     unsigned char* zeichen;
 2667              		.loc 1 725 5 view .LVU726
 726:Core/Src/SPI_TFT_ILI9341.c ****     unsigned char z,w;
 2668              		.loc 1 726 5 view .LVU727
 727:Core/Src/SPI_TFT_ILI9341.c **** 
 728:Core/Src/SPI_TFT_ILI9341.c ****     if ((c < 31) || (c > 127)) return;   // test char range
ARM GAS  /var/folders/gy/djtlh36967g6qz60tx0ltrsw0000gn/T//ccFocqOw.s 			page 69


 2669              		.loc 1 728 5 view .LVU728
 2670              		.loc 1 728 18 is_stmt 0 view .LVU729
 2671 0000 A3F11F02 		sub	r2, r3, #31
 2672              	.LVL277:
 2673              		.loc 1 728 8 view .LVU730
 2674 0004 602A     		cmp	r2, #96
 2675 0006 00F29180 		bhi	.L135
 723:Core/Src/SPI_TFT_ILI9341.c ****     unsigned int hor,vert,offset,bpl,j,i,b;
 2676              		.loc 1 723 1 view .LVU731
 2677 000a 2DE9F04F 		push	{r4, r5, r6, r7, r8, r9, r10, fp, lr}
 2678              	.LCFI37:
 2679              		.cfi_def_cfa_offset 36
 2680              		.cfi_offset 4, -36
 2681              		.cfi_offset 5, -32
 2682              		.cfi_offset 6, -28
 2683              		.cfi_offset 7, -24
 2684              		.cfi_offset 8, -20
 2685              		.cfi_offset 9, -16
 2686              		.cfi_offset 10, -12
 2687              		.cfi_offset 11, -8
 2688              		.cfi_offset 14, -4
 2689 000e 83B0     		sub	sp, sp, #12
 2690              	.LCFI38:
 2691              		.cfi_def_cfa_offset 48
 2692 0010 1C46     		mov	r4, r3
 2693 0012 0546     		mov	r5, r0
 729:Core/Src/SPI_TFT_ILI9341.c **** 
 730:Core/Src/SPI_TFT_ILI9341.c ****     // read font parameter from start of array
 731:Core/Src/SPI_TFT_ILI9341.c ****     offset = handle->font[0];                    // bytes / char
 2694              		.loc 1 731 5 is_stmt 1 view .LVU732
 2695              		.loc 1 731 20 is_stmt 0 view .LVU733
 2696 0014 D0F814A0 		ldr	r10, [r0, #20]
 2697              		.loc 1 731 26 view .LVU734
 2698 0018 9AF80070 		ldrb	r7, [r10]	@ zero_extendqisi2
 2699              	.LVL278:
 732:Core/Src/SPI_TFT_ILI9341.c ****     hor = handle->font[1];                       // get hor size of font
 2700              		.loc 1 732 5 is_stmt 1 view .LVU735
 2701              		.loc 1 732 23 is_stmt 0 view .LVU736
 2702 001c 9AF80160 		ldrb	r6, [r10, #1]	@ zero_extendqisi2
 2703              	.LVL279:
 733:Core/Src/SPI_TFT_ILI9341.c ****     vert = handle->font[2];                      // get vert size of font
 2704              		.loc 1 733 5 is_stmt 1 view .LVU737
 2705              		.loc 1 733 24 is_stmt 0 view .LVU738
 2706 0020 9AF80290 		ldrb	r9, [r10, #2]	@ zero_extendqisi2
 2707              	.LVL280:
 734:Core/Src/SPI_TFT_ILI9341.c ****     bpl = handle->font[3];                       // bytes per line
 2708              		.loc 1 734 5 is_stmt 1 view .LVU739
 2709              		.loc 1 734 23 is_stmt 0 view .LVU740
 2710 0024 9AF80380 		ldrb	r8, [r10, #3]	@ zero_extendqisi2
 2711              	.LVL281:
 735:Core/Src/SPI_TFT_ILI9341.c **** 
 736:Core/Src/SPI_TFT_ILI9341.c ****     if (handle->char_x + hor > SPI_TFT_ILI9341_width(handle)) {
 2712              		.loc 1 736 5 is_stmt 1 view .LVU741
 2713              		.loc 1 736 15 is_stmt 0 view .LVU742
 2714 0028 036A     		ldr	r3, [r0, #32]
 2715              	.LVL282:
 2716              		.loc 1 736 24 view .LVU743
ARM GAS  /var/folders/gy/djtlh36967g6qz60tx0ltrsw0000gn/T//ccFocqOw.s 			page 70


 2717 002a 03EB060B 		add	fp, r3, r6
 2718              		.loc 1 736 32 view .LVU744
 2719 002e FFF7FEFF 		bl	SPI_TFT_ILI9341_width
 2720              	.LVL283:
 2721              		.loc 1 736 8 view .LVU745
 2722 0032 8345     		cmp	fp, r0
 2723 0034 10D9     		bls	.L126
 737:Core/Src/SPI_TFT_ILI9341.c ****         handle->char_x = 0;
 2724              		.loc 1 737 9 is_stmt 1 view .LVU746
 2725              		.loc 1 737 24 is_stmt 0 view .LVU747
 2726 0036 0023     		movs	r3, #0
 2727 0038 2B62     		str	r3, [r5, #32]
 738:Core/Src/SPI_TFT_ILI9341.c ****         handle->char_y = handle->char_y + vert;
 2728              		.loc 1 738 9 is_stmt 1 view .LVU748
 2729              		.loc 1 738 32 is_stmt 0 view .LVU749
 2730 003a 6B6A     		ldr	r3, [r5, #36]
 2731              		.loc 1 738 41 view .LVU750
 2732 003c 03EB090B 		add	fp, r3, r9
 2733              		.loc 1 738 24 view .LVU751
 2734 0040 C5F824B0 		str	fp, [r5, #36]
 739:Core/Src/SPI_TFT_ILI9341.c ****         if (handle->char_y >= SPI_TFT_ILI9341_height(handle) - handle->font[2]) {
 2735              		.loc 1 739 9 is_stmt 1 view .LVU752
 2736              		.loc 1 739 31 is_stmt 0 view .LVU753
 2737 0044 2846     		mov	r0, r5
 2738 0046 FFF7FEFF 		bl	SPI_TFT_ILI9341_height
 2739              	.LVL284:
 2740              		.loc 1 739 76 view .LVU754
 2741 004a 9AF80230 		ldrb	r3, [r10, #2]	@ zero_extendqisi2
 2742              		.loc 1 739 62 view .LVU755
 2743 004e C31A     		subs	r3, r0, r3
 2744              		.loc 1 739 12 view .LVU756
 2745 0050 9B45     		cmp	fp, r3
 2746 0052 01D3     		bcc	.L126
 740:Core/Src/SPI_TFT_ILI9341.c ****             handle->char_y = 0;
 2747              		.loc 1 740 13 is_stmt 1 view .LVU757
 2748              		.loc 1 740 28 is_stmt 0 view .LVU758
 2749 0054 0023     		movs	r3, #0
 2750 0056 6B62     		str	r3, [r5, #36]
 2751              	.L126:
 741:Core/Src/SPI_TFT_ILI9341.c ****         }
 742:Core/Src/SPI_TFT_ILI9341.c ****     }
 743:Core/Src/SPI_TFT_ILI9341.c ****     window(handle, handle->char_x, handle->char_y, hor, vert); // char box
 2752              		.loc 1 743 5 is_stmt 1 view .LVU759
 2753 0058 CDF80090 		str	r9, [sp]
 2754 005c 3346     		mov	r3, r6
 2755 005e 6A6A     		ldr	r2, [r5, #36]
 2756 0060 296A     		ldr	r1, [r5, #32]
 2757 0062 2846     		mov	r0, r5
 2758 0064 FFF7FEFF 		bl	window
 2759              	.LVL285:
 744:Core/Src/SPI_TFT_ILI9341.c ****     wr_cmd(handle, 0x2C);  // send pixel
 2760              		.loc 1 744 5 view .LVU760
 2761 0068 2C21     		movs	r1, #44
 2762 006a 2846     		mov	r0, r5
 2763 006c FFF7FEFF 		bl	wr_cmd
 2764              	.LVL286:
 745:Core/Src/SPI_TFT_ILI9341.c ****     zeichen = handle->font + ((c -32) * offset + 4); // start of char bitmap
ARM GAS  /var/folders/gy/djtlh36967g6qz60tx0ltrsw0000gn/T//ccFocqOw.s 			page 71


 2765              		.loc 1 745 5 view .LVU761
 2766              		.loc 1 745 21 is_stmt 0 view .LVU762
 2767 0070 6A69     		ldr	r2, [r5, #20]
 2768              		.loc 1 745 34 view .LVU763
 2769 0072 A4F12003 		sub	r3, r4, #32
 2770              		.loc 1 745 39 view .LVU764
 2771 0076 07FB03F3 		mul	r3, r7, r3
 2772              		.loc 1 745 28 view .LVU765
 2773 007a 0433     		adds	r3, r3, #4
 2774              		.loc 1 745 13 view .LVU766
 2775 007c D718     		adds	r7, r2, r3
 2776              	.LVL287:
 746:Core/Src/SPI_TFT_ILI9341.c ****     w = zeichen[0];                          // width of actual char
 2777              		.loc 1 746 5 is_stmt 1 view .LVU767
 2778              		.loc 1 746 7 is_stmt 0 view .LVU768
 2779 007e 12F803A0 		ldrb	r10, [r2, r3]	@ zero_extendqisi2
 2780              	.LVL288:
 747:Core/Src/SPI_TFT_ILI9341.c ****     for (j=0; j<vert; j++) {  //  vert line
 2781              		.loc 1 747 5 is_stmt 1 view .LVU769
 2782              		.loc 1 747 11 is_stmt 0 view .LVU770
 2783 0082 0024     		movs	r4, #0
 2784              	.LVL289:
 2785              		.loc 1 747 5 view .LVU771
 2786 0084 37E0     		b	.L127
 2787              	.LVL290:
 2788              	.L129:
 748:Core/Src/SPI_TFT_ILI9341.c ****         INIBUF();
 749:Core/Src/SPI_TFT_ILI9341.c ****         for (i=0; i<hor; i++) {   //  horz line
 750:Core/Src/SPI_TFT_ILI9341.c ****             z =  zeichen[bpl * i + ((j & 0xF8) >> 3)+1];
 751:Core/Src/SPI_TFT_ILI9341.c ****             b = 1 << (j & 0x07);
 752:Core/Src/SPI_TFT_ILI9341.c ****             if (( z & b ) == 0x00) {
 753:Core/Src/SPI_TFT_ILI9341.c ****                 WBUF(handle->_background >> 8);
 754:Core/Src/SPI_TFT_ILI9341.c ****                 WBUF(handle->_background & 0xff);
 755:Core/Src/SPI_TFT_ILI9341.c ****             } else {
 756:Core/Src/SPI_TFT_ILI9341.c ****                 WBUF(handle->_foreground >> 8);
 2789              		.loc 1 756 17 is_stmt 1 view .LVU772
 2790 0086 EB8D     		ldrh	r3, [r5, #46]
 2791              	.LVL291:
 2792              		.loc 1 756 17 is_stmt 0 view .LVU773
 2793 0088 DFF8A8C0 		ldr	ip, .L140+4
 2794 008c DCF800E0 		ldr	lr, [ip]
 2795 0090 0EF10101 		add	r1, lr, #1
 2796              	.LVL292:
 2797              		.loc 1 756 17 view .LVU774
 2798 0094 2648     		ldr	r0, .L140
 2799              	.LVL293:
 2800              		.loc 1 756 17 view .LVU775
 2801 0096 1B0A     		lsrs	r3, r3, #8
 2802 0098 00F80E30 		strb	r3, [r0, lr]
 2803              	.LVL294:
 757:Core/Src/SPI_TFT_ILI9341.c ****                 WBUF(handle->_foreground & 0xff);
 2804              		.loc 1 757 17 is_stmt 1 view .LVU776
 2805 009c EB8D     		ldrh	r3, [r5, #46]
 2806 009e 0EF1020E 		add	lr, lr, #2
 2807 00a2 CCF800E0 		str	lr, [ip]
 2808 00a6 4354     		strb	r3, [r0, r1]
 2809              	.L130:
ARM GAS  /var/folders/gy/djtlh36967g6qz60tx0ltrsw0000gn/T//ccFocqOw.s 			page 72


 749:Core/Src/SPI_TFT_ILI9341.c ****             z =  zeichen[bpl * i + ((j & 0xF8) >> 3)+1];
 2810              		.loc 1 749 27 is_stmt 0 discriminator 2 view .LVU777
 2811 00a8 0132     		adds	r2, r2, #1
 2812              	.LVL295:
 2813              	.L128:
 749:Core/Src/SPI_TFT_ILI9341.c ****             z =  zeichen[bpl * i + ((j & 0xF8) >> 3)+1];
 2814              		.loc 1 749 9 discriminator 1 view .LVU778
 2815 00aa B242     		cmp	r2, r6
 2816 00ac 1DD2     		bcs	.L138
 750:Core/Src/SPI_TFT_ILI9341.c ****             b = 1 << (j & 0x07);
 2817              		.loc 1 750 13 is_stmt 1 view .LVU779
 750:Core/Src/SPI_TFT_ILI9341.c ****             b = 1 << (j & 0x07);
 2818              		.loc 1 750 48 is_stmt 0 view .LVU780
 2819 00ae C4F3C403 		ubfx	r3, r4, #3, #5
 750:Core/Src/SPI_TFT_ILI9341.c ****             b = 1 << (j & 0x07);
 2820              		.loc 1 750 34 view .LVU781
 2821 00b2 08FB0233 		mla	r3, r8, r2, r3
 750:Core/Src/SPI_TFT_ILI9341.c ****             b = 1 << (j & 0x07);
 2822              		.loc 1 750 25 view .LVU782
 2823 00b6 0133     		adds	r3, r3, #1
 750:Core/Src/SPI_TFT_ILI9341.c ****             b = 1 << (j & 0x07);
 2824              		.loc 1 750 15 view .LVU783
 2825 00b8 F95C     		ldrb	r1, [r7, r3]	@ zero_extendqisi2
 2826              	.LVL296:
 751:Core/Src/SPI_TFT_ILI9341.c ****             if (( z & b ) == 0x00) {
 2827              		.loc 1 751 13 is_stmt 1 view .LVU784
 751:Core/Src/SPI_TFT_ILI9341.c ****             if (( z & b ) == 0x00) {
 2828              		.loc 1 751 25 is_stmt 0 view .LVU785
 2829 00ba 04F00700 		and	r0, r4, #7
 751:Core/Src/SPI_TFT_ILI9341.c ****             if (( z & b ) == 0x00) {
 2830              		.loc 1 751 19 view .LVU786
 2831 00be 0123     		movs	r3, #1
 2832 00c0 8340     		lsls	r3, r3, r0
 2833              	.LVL297:
 752:Core/Src/SPI_TFT_ILI9341.c ****                 WBUF(handle->_background >> 8);
 2834              		.loc 1 752 13 is_stmt 1 view .LVU787
 752:Core/Src/SPI_TFT_ILI9341.c ****                 WBUF(handle->_background >> 8);
 2835              		.loc 1 752 16 is_stmt 0 view .LVU788
 2836 00c2 1942     		tst	r1, r3
 2837 00c4 DFD1     		bne	.L129
 753:Core/Src/SPI_TFT_ILI9341.c ****                 WBUF(handle->_background & 0xff);
 2838              		.loc 1 753 17 is_stmt 1 view .LVU789
 2839 00c6 2B8E     		ldrh	r3, [r5, #48]
 2840              	.LVL298:
 753:Core/Src/SPI_TFT_ILI9341.c ****                 WBUF(handle->_background & 0xff);
 2841              		.loc 1 753 17 is_stmt 0 view .LVU790
 2842 00c8 DFF868C0 		ldr	ip, .L140+4
 2843 00cc DCF800E0 		ldr	lr, [ip]
 2844 00d0 0EF10101 		add	r1, lr, #1
 2845              	.LVL299:
 753:Core/Src/SPI_TFT_ILI9341.c ****                 WBUF(handle->_background & 0xff);
 2846              		.loc 1 753 17 view .LVU791
 2847 00d4 1648     		ldr	r0, .L140
 2848              	.LVL300:
 753:Core/Src/SPI_TFT_ILI9341.c ****                 WBUF(handle->_background & 0xff);
 2849              		.loc 1 753 17 view .LVU792
 2850 00d6 1B0A     		lsrs	r3, r3, #8
ARM GAS  /var/folders/gy/djtlh36967g6qz60tx0ltrsw0000gn/T//ccFocqOw.s 			page 73


 2851 00d8 00F80E30 		strb	r3, [r0, lr]
 2852              	.LVL301:
 754:Core/Src/SPI_TFT_ILI9341.c ****             } else {
 2853              		.loc 1 754 17 is_stmt 1 view .LVU793
 2854 00dc 2B8E     		ldrh	r3, [r5, #48]
 2855 00de 0EF1020E 		add	lr, lr, #2
 2856 00e2 CCF800E0 		str	lr, [ip]
 2857 00e6 4354     		strb	r3, [r0, r1]
 2858 00e8 DEE7     		b	.L130
 2859              	.LVL302:
 2860              	.L138:
 758:Core/Src/SPI_TFT_ILI9341.c ****             }
 759:Core/Src/SPI_TFT_ILI9341.c ****         }
 760:Core/Src/SPI_TFT_ILI9341.c ****         handle->_spi(_buf, _bufi);
 2861              		.loc 1 760 9 discriminator 2 view .LVU794
 2862              		.loc 1 760 15 is_stmt 0 discriminator 2 view .LVU795
 2863 00ea 2B68     		ldr	r3, [r5]
 2864              		.loc 1 760 9 discriminator 2 view .LVU796
 2865 00ec 114A     		ldr	r2, .L140+4
 2866              	.LVL303:
 2867              		.loc 1 760 9 discriminator 2 view .LVU797
 2868 00ee 1188     		ldrh	r1, [r2]
 2869 00f0 0F48     		ldr	r0, .L140
 2870 00f2 9847     		blx	r3
 2871              	.LVL304:
 747:Core/Src/SPI_TFT_ILI9341.c ****         INIBUF();
 2872              		.loc 1 747 24 discriminator 2 view .LVU798
 2873 00f4 0134     		adds	r4, r4, #1
 2874              	.LVL305:
 2875              	.L127:
 747:Core/Src/SPI_TFT_ILI9341.c ****         INIBUF();
 2876              		.loc 1 747 5 discriminator 1 view .LVU799
 2877 00f6 4C45     		cmp	r4, r9
 2878 00f8 03D2     		bcs	.L139
 748:Core/Src/SPI_TFT_ILI9341.c ****         for (i=0; i<hor; i++) {   //  horz line
 2879              		.loc 1 748 9 is_stmt 1 view .LVU800
 2880 00fa 0022     		movs	r2, #0
 2881 00fc 0D4B     		ldr	r3, .L140+4
 2882 00fe 1A60     		str	r2, [r3]
 749:Core/Src/SPI_TFT_ILI9341.c ****             z =  zeichen[bpl * i + ((j & 0xF8) >> 3)+1];
 2883              		.loc 1 749 9 view .LVU801
 2884              	.LVL306:
 749:Core/Src/SPI_TFT_ILI9341.c ****             z =  zeichen[bpl * i + ((j & 0xF8) >> 3)+1];
 2885              		.loc 1 749 9 is_stmt 0 view .LVU802
 2886 0100 D3E7     		b	.L128
 2887              	.LVL307:
 2888              	.L139:
 761:Core/Src/SPI_TFT_ILI9341.c ****     }
 762:Core/Src/SPI_TFT_ILI9341.c ****     handle->_cs(1);
 2889              		.loc 1 762 5 is_stmt 1 view .LVU803
 2890              		.loc 1 762 11 is_stmt 0 view .LVU804
 2891 0102 6B68     		ldr	r3, [r5, #4]
 2892              		.loc 1 762 5 view .LVU805
 2893 0104 0120     		movs	r0, #1
 2894 0106 9847     		blx	r3
 2895              	.LVL308:
 763:Core/Src/SPI_TFT_ILI9341.c ****     WindowMax(handle);
ARM GAS  /var/folders/gy/djtlh36967g6qz60tx0ltrsw0000gn/T//ccFocqOw.s 			page 74


 2896              		.loc 1 763 5 is_stmt 1 view .LVU806
 2897 0108 2846     		mov	r0, r5
 2898 010a FFF7FEFF 		bl	WindowMax
 2899              	.LVL309:
 764:Core/Src/SPI_TFT_ILI9341.c ****     if ((w + 2) < hor) {                   // x offset to next char
 2900              		.loc 1 764 5 view .LVU807
 2901              		.loc 1 764 12 is_stmt 0 view .LVU808
 2902 010e 0AF10203 		add	r3, r10, #2
 2903              		.loc 1 764 8 view .LVU809
 2904 0112 B342     		cmp	r3, r6
 2905 0114 06D2     		bcs	.L133
 765:Core/Src/SPI_TFT_ILI9341.c ****         handle->char_x += w + 2;
 2906              		.loc 1 765 9 is_stmt 1 view .LVU810
 2907              		.loc 1 765 24 is_stmt 0 view .LVU811
 2908 0116 2B6A     		ldr	r3, [r5, #32]
 2909 0118 5344     		add	r3, r3, r10
 2910 011a 0233     		adds	r3, r3, #2
 2911 011c 2B62     		str	r3, [r5, #32]
 2912              	.L124:
 766:Core/Src/SPI_TFT_ILI9341.c ****     } else handle->char_x += hor;
 767:Core/Src/SPI_TFT_ILI9341.c **** }
 2913              		.loc 1 767 1 view .LVU812
 2914 011e 03B0     		add	sp, sp, #12
 2915              	.LCFI39:
 2916              		.cfi_remember_state
 2917              		.cfi_def_cfa_offset 36
 2918              		@ sp needed
 2919 0120 BDE8F08F 		pop	{r4, r5, r6, r7, r8, r9, r10, fp, pc}
 2920              	.LVL310:
 2921              	.L133:
 2922              	.LCFI40:
 2923              		.cfi_restore_state
 766:Core/Src/SPI_TFT_ILI9341.c ****     } else handle->char_x += hor;
 2924              		.loc 1 766 12 is_stmt 1 view .LVU813
 766:Core/Src/SPI_TFT_ILI9341.c ****     } else handle->char_x += hor;
 2925              		.loc 1 766 27 is_stmt 0 view .LVU814
 2926 0124 2B6A     		ldr	r3, [r5, #32]
 2927 0126 3344     		add	r3, r3, r6
 2928 0128 2B62     		str	r3, [r5, #32]
 2929 012a F8E7     		b	.L124
 2930              	.LVL311:
 2931              	.L135:
 2932              	.LCFI41:
 2933              		.cfi_def_cfa_offset 0
 2934              		.cfi_restore 4
 2935              		.cfi_restore 5
 2936              		.cfi_restore 6
 2937              		.cfi_restore 7
 2938              		.cfi_restore 8
 2939              		.cfi_restore 9
 2940              		.cfi_restore 10
 2941              		.cfi_restore 11
 2942              		.cfi_restore 14
 766:Core/Src/SPI_TFT_ILI9341.c ****     } else handle->char_x += hor;
 2943              		.loc 1 766 27 view .LVU815
 2944 012c 7047     		bx	lr
 2945              	.L141:
ARM GAS  /var/folders/gy/djtlh36967g6qz60tx0ltrsw0000gn/T//ccFocqOw.s 			page 75


 2946 012e 00BF     		.align	2
 2947              	.L140:
 2948 0130 00000000 		.word	.LANCHOR0
 2949 0134 00000000 		.word	.LANCHOR1
 2950              		.cfi_endproc
 2951              	.LFE25:
 2953              		.section	.text.SPI_TFT_ILI9341_putc,"ax",%progbits
 2954              		.align	1
 2955              		.global	SPI_TFT_ILI9341_putc
 2956              		.syntax unified
 2957              		.thumb
 2958              		.thumb_func
 2959              		.fpu fpv5-d16
 2961              	SPI_TFT_ILI9341_putc:
 2962              	.LVL312:
 2963              	.LFB24:
 708:Core/Src/SPI_TFT_ILI9341.c ****     if (value == '\n') {    // new line
 2964              		.loc 1 708 1 is_stmt 1 view -0
 2965              		.cfi_startproc
 2966              		@ args = 0, pretend = 0, frame = 0
 2967              		@ frame_needed = 0, uses_anonymous_args = 0
 708:Core/Src/SPI_TFT_ILI9341.c ****     if (value == '\n') {    // new line
 2968              		.loc 1 708 1 is_stmt 0 view .LVU817
 2969 0000 F8B5     		push	{r3, r4, r5, r6, r7, lr}
 2970              	.LCFI42:
 2971              		.cfi_def_cfa_offset 24
 2972              		.cfi_offset 3, -24
 2973              		.cfi_offset 4, -20
 2974              		.cfi_offset 5, -16
 2975              		.cfi_offset 6, -12
 2976              		.cfi_offset 7, -8
 2977              		.cfi_offset 14, -4
 2978 0002 0446     		mov	r4, r0
 2979 0004 0D46     		mov	r5, r1
 709:Core/Src/SPI_TFT_ILI9341.c ****         handle->char_x = 0;
 2980              		.loc 1 709 5 is_stmt 1 view .LVU818
 709:Core/Src/SPI_TFT_ILI9341.c ****         handle->char_x = 0;
 2981              		.loc 1 709 8 is_stmt 0 view .LVU819
 2982 0006 0A29     		cmp	r1, #10
 2983 0008 0FD1     		bne	.L143
 710:Core/Src/SPI_TFT_ILI9341.c ****         handle->char_y = handle->char_y + handle->font[2];
 2984              		.loc 1 710 9 is_stmt 1 view .LVU820
 710:Core/Src/SPI_TFT_ILI9341.c ****         handle->char_y = handle->char_y + handle->font[2];
 2985              		.loc 1 710 24 is_stmt 0 view .LVU821
 2986 000a 0023     		movs	r3, #0
 2987 000c 0362     		str	r3, [r0, #32]
 711:Core/Src/SPI_TFT_ILI9341.c ****         if (handle->char_y >= SPI_TFT_ILI9341_height(handle) - handle->font[2]) {
 2988              		.loc 1 711 9 is_stmt 1 view .LVU822
 711:Core/Src/SPI_TFT_ILI9341.c ****         if (handle->char_y >= SPI_TFT_ILI9341_height(handle) - handle->font[2]) {
 2989              		.loc 1 711 32 is_stmt 0 view .LVU823
 2990 000e 466A     		ldr	r6, [r0, #36]
 711:Core/Src/SPI_TFT_ILI9341.c ****         if (handle->char_y >= SPI_TFT_ILI9341_height(handle) - handle->font[2]) {
 2991              		.loc 1 711 49 view .LVU824
 2992 0010 4769     		ldr	r7, [r0, #20]
 711:Core/Src/SPI_TFT_ILI9341.c ****         if (handle->char_y >= SPI_TFT_ILI9341_height(handle) - handle->font[2]) {
 2993              		.loc 1 711 55 view .LVU825
 2994 0012 BB78     		ldrb	r3, [r7, #2]	@ zero_extendqisi2
ARM GAS  /var/folders/gy/djtlh36967g6qz60tx0ltrsw0000gn/T//ccFocqOw.s 			page 76


 711:Core/Src/SPI_TFT_ILI9341.c ****         if (handle->char_y >= SPI_TFT_ILI9341_height(handle) - handle->font[2]) {
 2995              		.loc 1 711 41 view .LVU826
 2996 0014 1E44     		add	r6, r6, r3
 711:Core/Src/SPI_TFT_ILI9341.c ****         if (handle->char_y >= SPI_TFT_ILI9341_height(handle) - handle->font[2]) {
 2997              		.loc 1 711 24 view .LVU827
 2998 0016 4662     		str	r6, [r0, #36]
 712:Core/Src/SPI_TFT_ILI9341.c ****             handle->char_y = 0;
 2999              		.loc 1 712 9 is_stmt 1 view .LVU828
 712:Core/Src/SPI_TFT_ILI9341.c ****             handle->char_y = 0;
 3000              		.loc 1 712 31 is_stmt 0 view .LVU829
 3001 0018 FFF7FEFF 		bl	SPI_TFT_ILI9341_height
 3002              	.LVL313:
 712:Core/Src/SPI_TFT_ILI9341.c ****             handle->char_y = 0;
 3003              		.loc 1 712 76 view .LVU830
 3004 001c BB78     		ldrb	r3, [r7, #2]	@ zero_extendqisi2
 712:Core/Src/SPI_TFT_ILI9341.c ****             handle->char_y = 0;
 3005              		.loc 1 712 62 view .LVU831
 3006 001e C01A     		subs	r0, r0, r3
 712:Core/Src/SPI_TFT_ILI9341.c ****             handle->char_y = 0;
 3007              		.loc 1 712 12 view .LVU832
 3008 0020 8642     		cmp	r6, r0
 3009 0022 07D3     		bcc	.L144
 713:Core/Src/SPI_TFT_ILI9341.c ****         }
 3010              		.loc 1 713 13 is_stmt 1 view .LVU833
 713:Core/Src/SPI_TFT_ILI9341.c ****         }
 3011              		.loc 1 713 28 is_stmt 0 view .LVU834
 3012 0024 0023     		movs	r3, #0
 3013 0026 6362     		str	r3, [r4, #36]
 3014 0028 04E0     		b	.L144
 3015              	.LVL314:
 3016              	.L143:
 716:Core/Src/SPI_TFT_ILI9341.c ****     }
 3017              		.loc 1 716 9 is_stmt 1 view .LVU835
 3018 002a 0B46     		mov	r3, r1
 3019 002c 426A     		ldr	r2, [r0, #36]
 3020 002e 016A     		ldr	r1, [r0, #32]
 3021              	.LVL315:
 716:Core/Src/SPI_TFT_ILI9341.c ****     }
 3022              		.loc 1 716 9 is_stmt 0 view .LVU836
 3023 0030 FFF7FEFF 		bl	SPI_TFT_ILI9341_character
 3024              	.LVL316:
 3025              	.L144:
 718:Core/Src/SPI_TFT_ILI9341.c **** }
 3026              		.loc 1 718 5 is_stmt 1 view .LVU837
 719:Core/Src/SPI_TFT_ILI9341.c **** 
 3027              		.loc 1 719 1 is_stmt 0 view .LVU838
 3028 0034 2846     		mov	r0, r5
 3029 0036 F8BD     		pop	{r3, r4, r5, r6, r7, pc}
 719:Core/Src/SPI_TFT_ILI9341.c **** 
 3030              		.loc 1 719 1 view .LVU839
 3031              		.cfi_endproc
 3032              	.LFE24:
 3034              		.section	.text.SPI_TFT_ILI9341_printf,"ax",%progbits
 3035              		.align	1
 3036              		.global	SPI_TFT_ILI9341_printf
 3037              		.syntax unified
 3038              		.thumb
ARM GAS  /var/folders/gy/djtlh36967g6qz60tx0ltrsw0000gn/T//ccFocqOw.s 			page 77


 3039              		.thumb_func
 3040              		.fpu fpv5-d16
 3042              	SPI_TFT_ILI9341_printf:
 3043              	.LVL317:
 3044              	.LFB23:
 691:Core/Src/SPI_TFT_ILI9341.c ****     static int n, i;
 3045              		.loc 1 691 1 is_stmt 1 view -0
 3046              		.cfi_startproc
 3047              		@ args = 4, pretend = 12, frame = 8
 3048              		@ frame_needed = 0, uses_anonymous_args = 1
 691:Core/Src/SPI_TFT_ILI9341.c ****     static int n, i;
 3049              		.loc 1 691 1 is_stmt 0 view .LVU841
 3050 0000 0EB4     		push	{r1, r2, r3}
 3051              	.LCFI43:
 3052              		.cfi_def_cfa_offset 12
 3053              		.cfi_offset 1, -12
 3054              		.cfi_offset 2, -8
 3055              		.cfi_offset 3, -4
 3056 0002 10B5     		push	{r4, lr}
 3057              	.LCFI44:
 3058              		.cfi_def_cfa_offset 20
 3059              		.cfi_offset 4, -20
 3060              		.cfi_offset 14, -16
 3061 0004 83B0     		sub	sp, sp, #12
 3062              	.LCFI45:
 3063              		.cfi_def_cfa_offset 32
 3064 0006 0446     		mov	r4, r0
 3065 0008 05AA     		add	r2, sp, #20
 3066 000a 52F8041B 		ldr	r1, [r2], #4
 692:Core/Src/SPI_TFT_ILI9341.c ****     static char b[PRINTFBUF_SIZ];
 3067              		.loc 1 692 5 is_stmt 1 view .LVU842
 693:Core/Src/SPI_TFT_ILI9341.c **** 
 3068              		.loc 1 693 5 view .LVU843
 695:Core/Src/SPI_TFT_ILI9341.c ****     va_start(args, format);
 3069              		.loc 1 695 5 view .LVU844
 696:Core/Src/SPI_TFT_ILI9341.c ****     n = vsprintf(b, format, args);
 3070              		.loc 1 696 5 view .LVU845
 3071 000e 0192     		str	r2, [sp, #4]
 697:Core/Src/SPI_TFT_ILI9341.c ****     va_end (args);
 3072              		.loc 1 697 5 view .LVU846
 697:Core/Src/SPI_TFT_ILI9341.c ****     va_end (args);
 3073              		.loc 1 697 9 is_stmt 0 view .LVU847
 3074 0010 1148     		ldr	r0, .L152
 3075              	.LVL318:
 697:Core/Src/SPI_TFT_ILI9341.c ****     va_end (args);
 3076              		.loc 1 697 9 view .LVU848
 3077 0012 FFF7FEFF 		bl	vsprintf
 3078              	.LVL319:
 697:Core/Src/SPI_TFT_ILI9341.c ****     va_end (args);
 3079              		.loc 1 697 7 view .LVU849
 3080 0016 114B     		ldr	r3, .L152+4
 3081 0018 1860     		str	r0, [r3]
 698:Core/Src/SPI_TFT_ILI9341.c **** 
 3082              		.loc 1 698 5 is_stmt 1 view .LVU850
 700:Core/Src/SPI_TFT_ILI9341.c ****     if(n > INBUF_SIZ) return -1;
 3083              		.loc 1 700 5 view .LVU851
 700:Core/Src/SPI_TFT_ILI9341.c ****     if(n > INBUF_SIZ) return -1;
ARM GAS  /var/folders/gy/djtlh36967g6qz60tx0ltrsw0000gn/T//ccFocqOw.s 			page 78


 3084              		.loc 1 700 7 is_stmt 0 view .LVU852
 3085 001a 0028     		cmp	r0, #0
 3086 001c 17DD     		ble	.L146
 701:Core/Src/SPI_TFT_ILI9341.c ****     for(i=0; i<n; ++i)
 3087              		.loc 1 701 5 is_stmt 1 view .LVU853
 701:Core/Src/SPI_TFT_ILI9341.c ****     for(i=0; i<n; ++i)
 3088              		.loc 1 701 7 is_stmt 0 view .LVU854
 3089 001e B0F5207F 		cmp	r0, #640
 3090 0022 12DC     		bgt	.L150
 702:Core/Src/SPI_TFT_ILI9341.c ****         SPI_TFT_ILI9341_putc(handle, b[i]);
 3091              		.loc 1 702 5 is_stmt 1 view .LVU855
 702:Core/Src/SPI_TFT_ILI9341.c ****         SPI_TFT_ILI9341_putc(handle, b[i]);
 3092              		.loc 1 702 10 is_stmt 0 view .LVU856
 3093 0024 0E4B     		ldr	r3, .L152+8
 3094 0026 0022     		movs	r2, #0
 3095 0028 1A60     		str	r2, [r3]
 3096              	.L148:
 702:Core/Src/SPI_TFT_ILI9341.c ****         SPI_TFT_ILI9341_putc(handle, b[i]);
 3097              		.loc 1 702 15 discriminator 1 view .LVU857
 3098 002a 0D4B     		ldr	r3, .L152+8
 3099 002c 1B68     		ldr	r3, [r3]
 3100 002e 0B4A     		ldr	r2, .L152+4
 3101 0030 1068     		ldr	r0, [r2]
 702:Core/Src/SPI_TFT_ILI9341.c ****         SPI_TFT_ILI9341_putc(handle, b[i]);
 3102              		.loc 1 702 5 discriminator 1 view .LVU858
 3103 0032 8342     		cmp	r3, r0
 3104 0034 0BDA     		bge	.L146
 703:Core/Src/SPI_TFT_ILI9341.c ****     return n;
 3105              		.loc 1 703 9 is_stmt 1 discriminator 3 view .LVU859
 3106 0036 084A     		ldr	r2, .L152
 3107 0038 D15C     		ldrb	r1, [r2, r3]	@ zero_extendqisi2
 3108 003a 2046     		mov	r0, r4
 3109 003c FFF7FEFF 		bl	SPI_TFT_ILI9341_putc
 3110              	.LVL320:
 702:Core/Src/SPI_TFT_ILI9341.c ****         SPI_TFT_ILI9341_putc(handle, b[i]);
 3111              		.loc 1 702 19 is_stmt 0 discriminator 3 view .LVU860
 3112 0040 074A     		ldr	r2, .L152+8
 3113 0042 1368     		ldr	r3, [r2]
 3114 0044 0133     		adds	r3, r3, #1
 3115 0046 1360     		str	r3, [r2]
 3116 0048 EFE7     		b	.L148
 3117              	.L150:
 701:Core/Src/SPI_TFT_ILI9341.c ****     for(i=0; i<n; ++i)
 3118              		.loc 1 701 30 view .LVU861
 3119 004a 4FF0FF30 		mov	r0, #-1
 3120              	.L146:
 705:Core/Src/SPI_TFT_ILI9341.c **** 
 3121              		.loc 1 705 1 view .LVU862
 3122 004e 03B0     		add	sp, sp, #12
 3123              	.LCFI46:
 3124              		.cfi_def_cfa_offset 20
 3125              		@ sp needed
 3126 0050 BDE81040 		pop	{r4, lr}
 3127              	.LCFI47:
 3128              		.cfi_restore 14
 3129              		.cfi_restore 4
 3130              		.cfi_def_cfa_offset 12
ARM GAS  /var/folders/gy/djtlh36967g6qz60tx0ltrsw0000gn/T//ccFocqOw.s 			page 79


 3131              	.LVL321:
 705:Core/Src/SPI_TFT_ILI9341.c **** 
 3132              		.loc 1 705 1 view .LVU863
 3133 0054 03B0     		add	sp, sp, #12
 3134              	.LCFI48:
 3135              		.cfi_restore 3
 3136              		.cfi_restore 2
 3137              		.cfi_restore 1
 3138              		.cfi_def_cfa_offset 0
 3139 0056 7047     		bx	lr
 3140              	.L153:
 3141              		.align	2
 3142              	.L152:
 3143 0058 00000000 		.word	.LANCHOR2
 3144 005c 00000000 		.word	.LANCHOR3
 3145 0060 00000000 		.word	.LANCHOR4
 3146              		.cfi_endproc
 3147              	.LFE23:
 3149              		.section	.text.SPI_TFT_ILI9341_set_font,"ax",%progbits
 3150              		.align	1
 3151              		.global	SPI_TFT_ILI9341_set_font
 3152              		.syntax unified
 3153              		.thumb
 3154              		.thumb_func
 3155              		.fpu fpv5-d16
 3157              	SPI_TFT_ILI9341_set_font:
 3158              	.LVL322:
 3159              	.LFB26:
 768:Core/Src/SPI_TFT_ILI9341.c **** 
 769:Core/Src/SPI_TFT_ILI9341.c **** 
 770:Core/Src/SPI_TFT_ILI9341.c **** void SPI_TFT_ILI9341_set_font(SPI_TFT_ILI9341_DriverStruct *handle, unsigned char* f)
 771:Core/Src/SPI_TFT_ILI9341.c **** {
 3160              		.loc 1 771 1 is_stmt 1 view -0
 3161              		.cfi_startproc
 3162              		@ args = 0, pretend = 0, frame = 0
 3163              		@ frame_needed = 0, uses_anonymous_args = 0
 3164              		@ link register save eliminated.
 772:Core/Src/SPI_TFT_ILI9341.c ****     handle->font = f;
 3165              		.loc 1 772 5 view .LVU865
 3166              		.loc 1 772 18 is_stmt 0 view .LVU866
 3167 0000 4161     		str	r1, [r0, #20]
 773:Core/Src/SPI_TFT_ILI9341.c **** }
 3168              		.loc 1 773 1 view .LVU867
 3169 0002 7047     		bx	lr
 3170              		.cfi_endproc
 3171              	.LFE26:
 3173              		.section	.text.SPI_TFT_ILI9341_Bitmap,"ax",%progbits
 3174              		.align	1
 3175              		.global	SPI_TFT_ILI9341_Bitmap
 3176              		.syntax unified
 3177              		.thumb
 3178              		.thumb_func
 3179              		.fpu fpv5-d16
 3181              	SPI_TFT_ILI9341_Bitmap:
 3182              	.LVL323:
 3183              	.LFB27:
 774:Core/Src/SPI_TFT_ILI9341.c **** 
ARM GAS  /var/folders/gy/djtlh36967g6qz60tx0ltrsw0000gn/T//ccFocqOw.s 			page 80


 775:Core/Src/SPI_TFT_ILI9341.c **** 
 776:Core/Src/SPI_TFT_ILI9341.c **** 
 777:Core/Src/SPI_TFT_ILI9341.c **** void SPI_TFT_ILI9341_Bitmap(SPI_TFT_ILI9341_DriverStruct *handle, unsigned int x, unsigned int y, u
 778:Core/Src/SPI_TFT_ILI9341.c **** {
 3184              		.loc 1 778 1 is_stmt 1 view -0
 3185              		.cfi_startproc
 3186              		@ args = 8, pretend = 0, frame = 8
 3187              		@ frame_needed = 0, uses_anonymous_args = 0
 3188              		.loc 1 778 1 is_stmt 0 view .LVU869
 3189 0000 2DE9F04F 		push	{r4, r5, r6, r7, r8, r9, r10, fp, lr}
 3190              	.LCFI49:
 3191              		.cfi_def_cfa_offset 36
 3192              		.cfi_offset 4, -36
 3193              		.cfi_offset 5, -32
 3194              		.cfi_offset 6, -28
 3195              		.cfi_offset 7, -24
 3196              		.cfi_offset 8, -20
 3197              		.cfi_offset 9, -16
 3198              		.cfi_offset 10, -12
 3199              		.cfi_offset 11, -8
 3200              		.cfi_offset 14, -4
 3201 0004 85B0     		sub	sp, sp, #20
 3202              	.LCFI50:
 3203              		.cfi_def_cfa_offset 56
 3204 0006 8146     		mov	r9, r0
 3205 0008 1D46     		mov	r5, r3
 3206 000a DDF838A0 		ldr	r10, [sp, #56]
 779:Core/Src/SPI_TFT_ILI9341.c ****     unsigned int j;
 3207              		.loc 1 779 5 is_stmt 1 view .LVU870
 780:Core/Src/SPI_TFT_ILI9341.c ****     int padd;
 3208              		.loc 1 780 5 view .LVU871
 781:Core/Src/SPI_TFT_ILI9341.c ****     unsigned short *bitmap_ptr = (unsigned short *)bitmap;
 3209              		.loc 1 781 5 view .LVU872
 3210              	.LVL324:
 782:Core/Src/SPI_TFT_ILI9341.c ****     unsigned short pix_temp;
 3211              		.loc 1 782 5 view .LVU873
 783:Core/Src/SPI_TFT_ILI9341.c ****     
 784:Core/Src/SPI_TFT_ILI9341.c ****     unsigned int i;
 3212              		.loc 1 784 5 view .LVU874
 785:Core/Src/SPI_TFT_ILI9341.c ****     
 786:Core/Src/SPI_TFT_ILI9341.c ****     // the lines are padded to multiple of 4 bytes in a bitmap
 787:Core/Src/SPI_TFT_ILI9341.c ****     padd = -1;
 3213              		.loc 1 787 5 view .LVU875
 3214              		.loc 1 787 10 is_stmt 0 view .LVU876
 3215 000e 4FF0FF33 		mov	r3, #-1
 3216              	.LVL325:
 3217              	.L156:
 788:Core/Src/SPI_TFT_ILI9341.c ****     do {
 3218              		.loc 1 788 5 is_stmt 1 discriminator 1 view .LVU877
 789:Core/Src/SPI_TFT_ILI9341.c ****         padd ++;
 3219              		.loc 1 789 9 discriminator 1 view .LVU878
 3220              		.loc 1 789 14 is_stmt 0 discriminator 1 view .LVU879
 3221 0012 0133     		adds	r3, r3, #1
 3222              	.LVL326:
 790:Core/Src/SPI_TFT_ILI9341.c ****     } while (2*(w + padd)%4 != 0);
 3223              		.loc 1 790 19 discriminator 1 view .LVU880
 3224 0014 9846     		mov	r8, r3
ARM GAS  /var/folders/gy/djtlh36967g6qz60tx0ltrsw0000gn/T//ccFocqOw.s 			page 81


 3225 0016 5C19     		adds	r4, r3, r5
 3226              		.loc 1 790 15 discriminator 1 view .LVU881
 3227 0018 6600     		lsls	r6, r4, #1
 3228              		.loc 1 790 5 discriminator 1 view .LVU882
 3229 001a 16F00200 		ands	r0, r6, #2
 3230 001e 0390     		str	r0, [sp, #12]
 3231 0020 F7D1     		bne	.L156
 791:Core/Src/SPI_TFT_ILI9341.c ****     window(handle, x, y, w, h);
 3232              		.loc 1 791 5 is_stmt 1 view .LVU883
 3233 0022 CDF800A0 		str	r10, [sp]
 3234 0026 2B46     		mov	r3, r5
 3235              	.LVL327:
 3236              		.loc 1 791 5 is_stmt 0 view .LVU884
 3237 0028 4846     		mov	r0, r9
 3238 002a FFF7FEFF 		bl	window
 3239              	.LVL328:
 792:Core/Src/SPI_TFT_ILI9341.c ****     bitmap_ptr += ((h - 1)* (w + padd));
 3240              		.loc 1 792 5 is_stmt 1 view .LVU885
 3241              		.loc 1 792 16 is_stmt 0 view .LVU886
 3242 002e 6FF00043 		mvn	r3, #-2147483648
 3243 0032 5344     		add	r3, r3, r10
 3244 0034 04FB03F4 		mul	r4, r4, r3
 3245 0038 0F9B     		ldr	r3, [sp, #60]
 3246 003a 03EB4404 		add	r4, r3, r4, lsl #1
 3247              	.LVL329:
 793:Core/Src/SPI_TFT_ILI9341.c ****     wr_cmd(handle, 0x2C);  // send pixel
 3248              		.loc 1 793 5 is_stmt 1 view .LVU887
 3249 003e 2C21     		movs	r1, #44
 3250 0040 4846     		mov	r0, r9
 3251 0042 FFF7FEFF 		bl	wr_cmd
 3252              	.LVL330:
 794:Core/Src/SPI_TFT_ILI9341.c ****     for (j = 0; j < h; j++) {         //Lines
 3253              		.loc 1 794 5 view .LVU888
 3254              		.loc 1 794 12 is_stmt 0 view .LVU889
 3255 0046 039F     		ldr	r7, [sp, #12]
 3256              		.loc 1 794 5 view .LVU890
 3257 0048 0BE0     		b	.L157
 3258              	.LVL331:
 3259              	.L163:
 795:Core/Src/SPI_TFT_ILI9341.c ****         INIBUF();
 796:Core/Src/SPI_TFT_ILI9341.c ****         for (i = 0; i < w; i++) {     // one line
 797:Core/Src/SPI_TFT_ILI9341.c ****             pix_temp = *bitmap_ptr;
 798:Core/Src/SPI_TFT_ILI9341.c ****             WBUF(pix_temp >> 8);
 799:Core/Src/SPI_TFT_ILI9341.c ****             WBUF(pix_temp);
 800:Core/Src/SPI_TFT_ILI9341.c ****             bitmap_ptr++;
 801:Core/Src/SPI_TFT_ILI9341.c ****         }
 802:Core/Src/SPI_TFT_ILI9341.c ****         handle->_spi(_buf, _bufi);
 3260              		.loc 1 802 9 is_stmt 1 discriminator 2 view .LVU891
 3261              		.loc 1 802 15 is_stmt 0 discriminator 2 view .LVU892
 3262 004a D9F80030 		ldr	r3, [r9]
 3263              	.LVL332:
 3264              		.loc 1 802 9 discriminator 2 view .LVU893
 3265 004e 174A     		ldr	r2, .L164
 3266 0050 1188     		ldrh	r1, [r2]
 3267 0052 1748     		ldr	r0, .L164+4
 3268 0054 9847     		blx	r3
 3269              	.LVL333:
ARM GAS  /var/folders/gy/djtlh36967g6qz60tx0ltrsw0000gn/T//ccFocqOw.s 			page 82


 803:Core/Src/SPI_TFT_ILI9341.c ****         bitmap_ptr -= 2*w;
 3270              		.loc 1 803 9 is_stmt 1 discriminator 2 view .LVU894
 3271              		.loc 1 803 20 is_stmt 0 discriminator 2 view .LVU895
 3272 0056 AB00     		lsls	r3, r5, #2
 3273 0058 5B42     		rsbs	r3, r3, #0
 3274              	.LVL334:
 804:Core/Src/SPI_TFT_ILI9341.c ****         bitmap_ptr -= padd;
 3275              		.loc 1 804 9 is_stmt 1 discriminator 2 view .LVU896
 3276              		.loc 1 804 20 is_stmt 0 discriminator 2 view .LVU897
 3277 005a A3EB4803 		sub	r3, r3, r8, lsl #1
 3278              	.LVL335:
 3279              		.loc 1 804 20 discriminator 2 view .LVU898
 3280 005e 1C44     		add	r4, r4, r3
 3281              	.LVL336:
 794:Core/Src/SPI_TFT_ILI9341.c ****         INIBUF();
 3282              		.loc 1 794 25 discriminator 2 view .LVU899
 3283 0060 0137     		adds	r7, r7, #1
 3284              	.LVL337:
 3285              	.L157:
 794:Core/Src/SPI_TFT_ILI9341.c ****         INIBUF();
 3286              		.loc 1 794 5 discriminator 1 view .LVU900
 3287 0062 5745     		cmp	r7, r10
 3288 0064 18D2     		bcs	.L162
 795:Core/Src/SPI_TFT_ILI9341.c ****         for (i = 0; i < w; i++) {     // one line
 3289              		.loc 1 795 9 is_stmt 1 view .LVU901
 3290 0066 114B     		ldr	r3, .L164
 3291 0068 0022     		movs	r2, #0
 3292 006a 1A60     		str	r2, [r3]
 796:Core/Src/SPI_TFT_ILI9341.c ****             pix_temp = *bitmap_ptr;
 3293              		.loc 1 796 9 view .LVU902
 3294              	.LVL338:
 796:Core/Src/SPI_TFT_ILI9341.c ****             pix_temp = *bitmap_ptr;
 3295              		.loc 1 796 16 is_stmt 0 view .LVU903
 3296 006c 039B     		ldr	r3, [sp, #12]
 3297              	.LVL339:
 3298              	.L158:
 796:Core/Src/SPI_TFT_ILI9341.c ****             pix_temp = *bitmap_ptr;
 3299              		.loc 1 796 9 discriminator 1 view .LVU904
 3300 006e AB42     		cmp	r3, r5
 3301 0070 EBD2     		bcs	.L163
 797:Core/Src/SPI_TFT_ILI9341.c ****             WBUF(pix_temp >> 8);
 3302              		.loc 1 797 13 is_stmt 1 discriminator 3 view .LVU905
 797:Core/Src/SPI_TFT_ILI9341.c ****             WBUF(pix_temp >> 8);
 3303              		.loc 1 797 22 is_stmt 0 discriminator 3 view .LVU906
 3304 0072 34F8020B 		ldrh	r0, [r4], #2
 3305              	.LVL340:
 798:Core/Src/SPI_TFT_ILI9341.c ****             WBUF(pix_temp);
 3306              		.loc 1 798 13 is_stmt 1 discriminator 3 view .LVU907
 3307 0076 0D4E     		ldr	r6, .L164
 3308 0078 D6F800E0 		ldr	lr, [r6]
 3309 007c 0EF10102 		add	r2, lr, #1
 3310 0080 0B49     		ldr	r1, .L164+4
 3311 0082 4FEA102B 		lsr	fp, r0, #8
 3312 0086 01F80EB0 		strb	fp, [r1, lr]
 799:Core/Src/SPI_TFT_ILI9341.c ****             bitmap_ptr++;
 3313              		.loc 1 799 13 discriminator 3 view .LVU908
 3314 008a 0EF1020E 		add	lr, lr, #2
ARM GAS  /var/folders/gy/djtlh36967g6qz60tx0ltrsw0000gn/T//ccFocqOw.s 			page 83


 3315 008e C6F800E0 		str	lr, [r6]
 3316 0092 8854     		strb	r0, [r1, r2]
 800:Core/Src/SPI_TFT_ILI9341.c ****         }
 3317              		.loc 1 800 13 discriminator 3 view .LVU909
 3318              	.LVL341:
 796:Core/Src/SPI_TFT_ILI9341.c ****             pix_temp = *bitmap_ptr;
 3319              		.loc 1 796 29 is_stmt 0 discriminator 3 view .LVU910
 3320 0094 0133     		adds	r3, r3, #1
 3321              	.LVL342:
 796:Core/Src/SPI_TFT_ILI9341.c ****             pix_temp = *bitmap_ptr;
 3322              		.loc 1 796 29 discriminator 3 view .LVU911
 3323 0096 EAE7     		b	.L158
 3324              	.LVL343:
 3325              	.L162:
 805:Core/Src/SPI_TFT_ILI9341.c ****     }
 806:Core/Src/SPI_TFT_ILI9341.c ****     handle->_cs(1);
 3326              		.loc 1 806 5 is_stmt 1 view .LVU912
 3327              		.loc 1 806 11 is_stmt 0 view .LVU913
 3328 0098 D9F80430 		ldr	r3, [r9, #4]
 3329              		.loc 1 806 5 view .LVU914
 3330 009c 0120     		movs	r0, #1
 3331 009e 9847     		blx	r3
 3332              	.LVL344:
 807:Core/Src/SPI_TFT_ILI9341.c ****     WindowMax(handle);
 3333              		.loc 1 807 5 is_stmt 1 view .LVU915
 3334 00a0 4846     		mov	r0, r9
 3335 00a2 FFF7FEFF 		bl	WindowMax
 3336              	.LVL345:
 808:Core/Src/SPI_TFT_ILI9341.c **** }
 3337              		.loc 1 808 1 is_stmt 0 view .LVU916
 3338 00a6 05B0     		add	sp, sp, #20
 3339              	.LCFI51:
 3340              		.cfi_def_cfa_offset 36
 3341              		@ sp needed
 3342 00a8 BDE8F08F 		pop	{r4, r5, r6, r7, r8, r9, r10, fp, pc}
 3343              	.LVL346:
 3344              	.L165:
 3345              		.loc 1 808 1 view .LVU917
 3346              		.align	2
 3347              	.L164:
 3348 00ac 00000000 		.word	.LANCHOR1
 3349 00b0 00000000 		.word	.LANCHOR0
 3350              		.cfi_endproc
 3351              	.LFE27:
 3353              		.section	.text.SPI_TFT_ILI9341_ellipse,"ax",%progbits
 3354              		.align	1
 3355              		.global	SPI_TFT_ILI9341_ellipse
 3356              		.syntax unified
 3357              		.thumb
 3358              		.thumb_func
 3359              		.fpu fpv5-d16
 3361              	SPI_TFT_ILI9341_ellipse:
 3362              	.LVL347:
 3363              	.LFB28:
 809:Core/Src/SPI_TFT_ILI9341.c **** 
 810:Core/Src/SPI_TFT_ILI9341.c **** 
 811:Core/Src/SPI_TFT_ILI9341.c **** // local filesystem is not implemented in kinetis board , but you can add a SD card
ARM GAS  /var/folders/gy/djtlh36967g6qz60tx0ltrsw0000gn/T//ccFocqOw.s 			page 84


 812:Core/Src/SPI_TFT_ILI9341.c **** //int SPI_TFT_ILI9341_BMP_16(SPI_TFT_ILI9341_DriverStruct *handle, unsigned int x, unsigned int y, 
 813:Core/Src/SPI_TFT_ILI9341.c **** //{
 814:Core/Src/SPI_TFT_ILI9341.c **** //
 815:Core/Src/SPI_TFT_ILI9341.c **** //#define OffsetPixelWidth    18
 816:Core/Src/SPI_TFT_ILI9341.c **** //#define OffsetPixelHeigh    22
 817:Core/Src/SPI_TFT_ILI9341.c **** //#define OffsetFileSize      34
 818:Core/Src/SPI_TFT_ILI9341.c **** //#define OffsetPixData       10
 819:Core/Src/SPI_TFT_ILI9341.c **** //#define OffsetBPP           28
 820:Core/Src/SPI_TFT_ILI9341.c **** //
 821:Core/Src/SPI_TFT_ILI9341.c **** //    char filename[50];
 822:Core/Src/SPI_TFT_ILI9341.c **** //    unsigned char BMP_Header[54];
 823:Core/Src/SPI_TFT_ILI9341.c **** //    unsigned short BPP_t;
 824:Core/Src/SPI_TFT_ILI9341.c **** //    unsigned int PixelWidth,PixelHeigh,start_data;
 825:Core/Src/SPI_TFT_ILI9341.c **** //    unsigned int    i,off;
 826:Core/Src/SPI_TFT_ILI9341.c **** //    int padd,j;
 827:Core/Src/SPI_TFT_ILI9341.c **** //    unsigned short *line;
 828:Core/Src/SPI_TFT_ILI9341.c **** //
 829:Core/Src/SPI_TFT_ILI9341.c **** //    // get the filename
 830:Core/Src/SPI_TFT_ILI9341.c **** //    i=0;
 831:Core/Src/SPI_TFT_ILI9341.c **** //    while (*Name_BMP!='\0') {
 832:Core/Src/SPI_TFT_ILI9341.c **** //        filename[i++]=*Name_BMP++;
 833:Core/Src/SPI_TFT_ILI9341.c **** //    }
 834:Core/Src/SPI_TFT_ILI9341.c **** //    filename[i] = 0;  
 835:Core/Src/SPI_TFT_ILI9341.c **** //    
 836:Core/Src/SPI_TFT_ILI9341.c **** //    FILE *Image = fopen((const char *)&filename[0], "rb");  // open the bmp file
 837:Core/Src/SPI_TFT_ILI9341.c **** //    if (!Image) {
 838:Core/Src/SPI_TFT_ILI9341.c **** //        return(0);      // error file not found !
 839:Core/Src/SPI_TFT_ILI9341.c **** //    }
 840:Core/Src/SPI_TFT_ILI9341.c **** //
 841:Core/Src/SPI_TFT_ILI9341.c **** //    fread(&BMP_Header[0],1,54,Image);      // get the BMP Header
 842:Core/Src/SPI_TFT_ILI9341.c **** //
 843:Core/Src/SPI_TFT_ILI9341.c **** //    if (BMP_Header[0] != 0x42 || BMP_Header[1] != 0x4D) {  // check magic byte
 844:Core/Src/SPI_TFT_ILI9341.c **** //        fclose(Image);
 845:Core/Src/SPI_TFT_ILI9341.c **** //        return(-1);     // error no BMP file
 846:Core/Src/SPI_TFT_ILI9341.c **** //    }
 847:Core/Src/SPI_TFT_ILI9341.c **** //
 848:Core/Src/SPI_TFT_ILI9341.c **** //    BPP_t = BMP_Header[OffsetBPP] + (BMP_Header[OffsetBPP + 1] << 8);
 849:Core/Src/SPI_TFT_ILI9341.c **** //    if (BPP_t != 0x0010) {
 850:Core/Src/SPI_TFT_ILI9341.c **** //        fclose(Image);
 851:Core/Src/SPI_TFT_ILI9341.c **** //        return(-2);     // error no 16 bit BMP
 852:Core/Src/SPI_TFT_ILI9341.c **** //    }
 853:Core/Src/SPI_TFT_ILI9341.c **** //
 854:Core/Src/SPI_TFT_ILI9341.c **** //    PixelHeigh = BMP_Header[OffsetPixelHeigh] + (BMP_Header[OffsetPixelHeigh + 1] << 8) + (BMP_He
 855:Core/Src/SPI_TFT_ILI9341.c **** //    PixelWidth = BMP_Header[OffsetPixelWidth] + (BMP_Header[OffsetPixelWidth + 1] << 8) + (BMP_He
 856:Core/Src/SPI_TFT_ILI9341.c **** //    if (PixelHeigh > height() + y || PixelWidth > width() + x) {
 857:Core/Src/SPI_TFT_ILI9341.c **** //        fclose(Image);
 858:Core/Src/SPI_TFT_ILI9341.c **** //        return(-3);      // to big
 859:Core/Src/SPI_TFT_ILI9341.c **** //    }
 860:Core/Src/SPI_TFT_ILI9341.c **** //
 861:Core/Src/SPI_TFT_ILI9341.c **** //    start_data = BMP_Header[OffsetPixData] + (BMP_Header[OffsetPixData + 1] << 8) + (BMP_Header[O
 862:Core/Src/SPI_TFT_ILI9341.c **** //
 863:Core/Src/SPI_TFT_ILI9341.c **** //    line = (unsigned short *) malloc (2 * PixelWidth); // we need a buffer for a line
 864:Core/Src/SPI_TFT_ILI9341.c **** //    if (line == NULL) {
 865:Core/Src/SPI_TFT_ILI9341.c **** //        return(-4);         // error no memory
 866:Core/Src/SPI_TFT_ILI9341.c **** //    }
 867:Core/Src/SPI_TFT_ILI9341.c **** //
 868:Core/Src/SPI_TFT_ILI9341.c **** //    // the bmp lines are padded to multiple of 4 bytes
ARM GAS  /var/folders/gy/djtlh36967g6qz60tx0ltrsw0000gn/T//ccFocqOw.s 			page 85


 869:Core/Src/SPI_TFT_ILI9341.c **** //    padd = -1;
 870:Core/Src/SPI_TFT_ILI9341.c **** //    do {
 871:Core/Src/SPI_TFT_ILI9341.c **** //        padd ++;
 872:Core/Src/SPI_TFT_ILI9341.c **** //    } while ((PixelWidth * 2 + padd)%4 != 0);
 873:Core/Src/SPI_TFT_ILI9341.c **** //
 874:Core/Src/SPI_TFT_ILI9341.c **** //    window(x, y,PixelWidth ,PixelHeigh);
 875:Core/Src/SPI_TFT_ILI9341.c **** //    wr_cmd(0x2C);  // send pixel
 876:Core/Src/SPI_TFT_ILI9341.c **** //    for (j = PixelHeigh - 1; j >= 0; j--) {               //Lines bottom up
 877:Core/Src/SPI_TFT_ILI9341.c **** //        off = j * (PixelWidth  * 2 + padd) + start_data;   // start of line
 878:Core/Src/SPI_TFT_ILI9341.c **** //        fseek(Image, off ,SEEK_SET);
 879:Core/Src/SPI_TFT_ILI9341.c **** //        fread(line,1,PixelWidth * 2,Image);       // read a line - slow 
 880:Core/Src/SPI_TFT_ILI9341.c **** //        for (i = 0; i < PixelWidth; i++) {        // copy pixel data to TFT
 881:Core/Src/SPI_TFT_ILI9341.c **** //            SPI::write(line[i] >> 8);
 882:Core/Src/SPI_TFT_ILI9341.c **** //            SPI::write(line[i]);
 883:Core/Src/SPI_TFT_ILI9341.c **** //        } 
 884:Core/Src/SPI_TFT_ILI9341.c **** //     }
 885:Core/Src/SPI_TFT_ILI9341.c **** //    _cs = 1;
 886:Core/Src/SPI_TFT_ILI9341.c **** //    SPI::format(8,3);
 887:Core/Src/SPI_TFT_ILI9341.c **** //    free (line);
 888:Core/Src/SPI_TFT_ILI9341.c **** //    fclose(Image);
 889:Core/Src/SPI_TFT_ILI9341.c **** //    WindowMax();
 890:Core/Src/SPI_TFT_ILI9341.c **** //    return(1);
 891:Core/Src/SPI_TFT_ILI9341.c **** //}
 892:Core/Src/SPI_TFT_ILI9341.c **** 
 893:Core/Src/SPI_TFT_ILI9341.c **** void SPI_TFT_ILI9341_ellipse(SPI_TFT_ILI9341_DriverStruct *handle, int xc, int yc, int a, int b, in
 894:Core/Src/SPI_TFT_ILI9341.c **** {
 3364              		.loc 1 894 1 is_stmt 1 view -0
 3365              		.cfi_startproc
 3366              		@ args = 8, pretend = 0, frame = 48
 3367              		@ frame_needed = 0, uses_anonymous_args = 0
 3368              		.loc 1 894 1 is_stmt 0 view .LVU919
 3369 0000 2DE9F04F 		push	{r4, r5, r6, r7, r8, r9, r10, fp, lr}
 3370              	.LCFI52:
 3371              		.cfi_def_cfa_offset 36
 3372              		.cfi_offset 4, -36
 3373              		.cfi_offset 5, -32
 3374              		.cfi_offset 6, -28
 3375              		.cfi_offset 7, -24
 3376              		.cfi_offset 8, -20
 3377              		.cfi_offset 9, -16
 3378              		.cfi_offset 10, -12
 3379              		.cfi_offset 11, -8
 3380              		.cfi_offset 14, -4
 3381 0004 8DB0     		sub	sp, sp, #52
 3382              	.LCFI53:
 3383              		.cfi_def_cfa_offset 88
 3384 0006 0090     		str	r0, [sp]
 3385 0008 8846     		mov	r8, r1
 3386 000a 0192     		str	r2, [sp, #4]
 3387 000c 0293     		str	r3, [sp, #8]
 3388 000e 169D     		ldr	r5, [sp, #88]
 895:Core/Src/SPI_TFT_ILI9341.c ****     /* e(x,y) = b^2*x^2 + a^2*y^2 - a^2*b^2 */
 896:Core/Src/SPI_TFT_ILI9341.c ****     //wr_reg(0x03, 0x1030);
 897:Core/Src/SPI_TFT_ILI9341.c ****     //SPI::write(0x28);
 898:Core/Src/SPI_TFT_ILI9341.c ****     //WindowMax();
 899:Core/Src/SPI_TFT_ILI9341.c ****     int x = 0, y = b;
 3389              		.loc 1 899 5 is_stmt 1 view .LVU920
ARM GAS  /var/folders/gy/djtlh36967g6qz60tx0ltrsw0000gn/T//ccFocqOw.s 			page 86


 3390              	.LVL348:
 900:Core/Src/SPI_TFT_ILI9341.c ****     long a2 = (long)a*a, b2 = (long)b*b;
 3391              		.loc 1 900 5 view .LVU921
 3392              		.loc 1 900 10 is_stmt 0 view .LVU922
 3393 0010 03FB03F3 		mul	r3, r3, r3
 3394              	.LVL349:
 3395              		.loc 1 900 10 view .LVU923
 3396 0014 0793     		str	r3, [sp, #28]
 3397              	.LVL350:
 3398              		.loc 1 900 26 view .LVU924
 3399 0016 05FB05F9 		mul	r9, r5, r5
 3400              	.LVL351:
 901:Core/Src/SPI_TFT_ILI9341.c ****     long crit1 = -(a2/4 + a%2 + b2);
 3401              		.loc 1 901 5 is_stmt 1 view .LVU925
 3402              		.loc 1 901 22 is_stmt 0 view .LVU926
 3403 001a 1A46     		mov	r2, r3
 3404              	.LVL352:
 3405              		.loc 1 901 22 view .LVU927
 3406 001c 002B     		cmp	r3, #0
 3407 001e 37DB     		blt	.L179
 3408              	.L167:
 3409              		.loc 1 901 28 view .LVU928
 3410 0020 029B     		ldr	r3, [sp, #8]
 3411              	.LVL353:
 3412              		.loc 1 901 28 view .LVU929
 3413 0022 002B     		cmp	r3, #0
 3414 0024 03F00103 		and	r3, r3, #1
 3415 0028 B8BF     		it	lt
 3416 002a 5B42     		rsblt	r3, r3, #0
 3417              		.loc 1 901 25 view .LVU930
 3418 002c 03EBA203 		add	r3, r3, r2, asr #2
 3419              		.loc 1 901 31 view .LVU931
 3420 0030 4B44     		add	r3, r3, r9
 3421              		.loc 1 901 10 view .LVU932
 3422 0032 5B42     		rsbs	r3, r3, #0
 3423 0034 0593     		str	r3, [sp, #20]
 3424              	.LVL354:
 902:Core/Src/SPI_TFT_ILI9341.c ****     long crit2 = -(b2/4 + b%2 + a2);
 3425              		.loc 1 902 5 is_stmt 1 view .LVU933
 3426              		.loc 1 902 22 is_stmt 0 view .LVU934
 3427 0036 4B46     		mov	r3, r9
 3428              	.LVL355:
 3429              		.loc 1 902 22 view .LVU935
 3430 0038 B9F1000F 		cmp	r9, #0
 3431 003c 2ADB     		blt	.L180
 3432              	.L168:
 3433              		.loc 1 902 28 view .LVU936
 3434 003e 002D     		cmp	r5, #0
 3435 0040 05F00102 		and	r2, r5, #1
 3436 0044 B8BF     		it	lt
 3437 0046 5242     		rsblt	r2, r2, #0
 3438              		.loc 1 902 25 view .LVU937
 3439 0048 02EBA303 		add	r3, r2, r3, asr #2
 3440              		.loc 1 902 31 view .LVU938
 3441 004c 0799     		ldr	r1, [sp, #28]
 3442              	.LVL356:
 3443              		.loc 1 902 31 view .LVU939
ARM GAS  /var/folders/gy/djtlh36967g6qz60tx0ltrsw0000gn/T//ccFocqOw.s 			page 87


 3444 004e 0B44     		add	r3, r3, r1
 3445              		.loc 1 902 10 view .LVU940
 3446 0050 5B42     		rsbs	r3, r3, #0
 3447 0052 0A93     		str	r3, [sp, #40]
 3448              	.LVL357:
 903:Core/Src/SPI_TFT_ILI9341.c ****     long crit3 = -(b2/4 + b%2);
 3449              		.loc 1 903 5 is_stmt 1 view .LVU941
 3450              		.loc 1 903 22 is_stmt 0 view .LVU942
 3451 0054 4B46     		mov	r3, r9
 3452              	.LVL358:
 3453              		.loc 1 903 22 view .LVU943
 3454 0056 B9F1000F 		cmp	r9, #0
 3455 005a 1EDB     		blt	.L181
 3456              	.L169:
 3457 005c 9B10     		asrs	r3, r3, #2
 3458 005e 5B42     		rsbs	r3, r3, #0
 3459              		.loc 1 903 10 view .LVU944
 3460 0060 9B1A     		subs	r3, r3, r2
 3461 0062 0893     		str	r3, [sp, #32]
 3462              	.LVL359:
 904:Core/Src/SPI_TFT_ILI9341.c ****     long t = -a2*y;                         // e(x+1/2,y-1/2) - (a^2+b^2)/4
 3463              		.loc 1 904 5 is_stmt 1 view .LVU945
 3464              		.loc 1 904 14 is_stmt 0 view .LVU946
 3465 0064 0799     		ldr	r1, [sp, #28]
 3466 0066 4E42     		rsbs	r6, r1, #0
 3467              		.loc 1 904 10 view .LVU947
 3468 0068 05FB06F6 		mul	r6, r5, r6
 3469              	.LVL360:
 905:Core/Src/SPI_TFT_ILI9341.c ****     long dxt = 2*b2*x, dyt = -2*a2*y;
 3470              		.loc 1 905 5 is_stmt 1 view .LVU948
 3471              		.loc 1 905 35 is_stmt 0 view .LVU949
 3472 006c 0B46     		mov	r3, r1
 3473              	.LVL361:
 3474              		.loc 1 905 35 view .LVU950
 3475 006e 03FB05F3 		mul	r3, r3, r5
 3476              		.loc 1 905 24 view .LVU951
 3477 0072 C3EBC373 		rsb	r3, r3, r3, lsl #31
 3478 0076 5A00     		lsls	r2, r3, #1
 3479 0078 0992     		str	r2, [sp, #36]
 3480              	.LVL362:
 906:Core/Src/SPI_TFT_ILI9341.c ****     long d2xt = 2*b2, d2yt = 2*a2;
 3481              		.loc 1 906 5 is_stmt 1 view .LVU952
 3482              		.loc 1 906 10 is_stmt 0 view .LVU953
 3483 007a 4FEA4903 		lsl	r3, r9, #1
 3484 007e 0693     		str	r3, [sp, #24]
 3485              	.LVL363:
 3486              		.loc 1 906 23 view .LVU954
 3487 0080 4B00     		lsls	r3, r1, #1
 3488              	.LVL364:
 3489              		.loc 1 906 23 view .LVU955
 3490 0082 0B93     		str	r3, [sp, #44]
 3491              	.LVL365:
 907:Core/Src/SPI_TFT_ILI9341.c ****  
 908:Core/Src/SPI_TFT_ILI9341.c ****     while (y>=0 && x<=a) {
 3492              		.loc 1 908 5 is_stmt 1 view .LVU956
 905:Core/Src/SPI_TFT_ILI9341.c ****     long d2xt = 2*b2, d2yt = 2*a2;
 3493              		.loc 1 905 10 is_stmt 0 view .LVU957
ARM GAS  /var/folders/gy/djtlh36967g6qz60tx0ltrsw0000gn/T//ccFocqOw.s 			page 88


 3494 0084 0027     		movs	r7, #0
 899:Core/Src/SPI_TFT_ILI9341.c ****     long a2 = (long)a*a, b2 = (long)b*b;
 3495              		.loc 1 899 9 view .LVU958
 3496 0086 3C46     		mov	r4, r7
 3497 0088 4346     		mov	r3, r8
 3498              	.LVL366:
 899:Core/Src/SPI_TFT_ILI9341.c ****     long a2 = (long)a*a, b2 = (long)b*b;
 3499              		.loc 1 899 9 view .LVU959
 3500 008a C846     		mov	r8, r9
 3501              	.LVL367:
 899:Core/Src/SPI_TFT_ILI9341.c ****     long a2 = (long)a*a, b2 = (long)b*b;
 3502              		.loc 1 899 9 view .LVU960
 3503 008c 9946     		mov	r9, r3
 3504              	.LVL368:
 3505              		.loc 1 908 11 view .LVU961
 3506 008e 25E0     		b	.L170
 3507              	.LVL369:
 3508              	.L179:
 901:Core/Src/SPI_TFT_ILI9341.c ****     long crit2 = -(b2/4 + b%2 + a2);
 3509              		.loc 1 901 22 view .LVU962
 3510 0090 DA1C     		adds	r2, r3, #3
 3511              	.LVL370:
 901:Core/Src/SPI_TFT_ILI9341.c ****     long crit2 = -(b2/4 + b%2 + a2);
 3512              		.loc 1 901 22 view .LVU963
 3513 0092 C5E7     		b	.L167
 3514              	.LVL371:
 3515              	.L180:
 902:Core/Src/SPI_TFT_ILI9341.c ****     long crit3 = -(b2/4 + b%2);
 3516              		.loc 1 902 22 view .LVU964
 3517 0094 09F10303 		add	r3, r9, #3
 3518              	.LVL372:
 902:Core/Src/SPI_TFT_ILI9341.c ****     long crit3 = -(b2/4 + b%2);
 3519              		.loc 1 902 22 view .LVU965
 3520 0098 D1E7     		b	.L168
 3521              	.LVL373:
 3522              	.L181:
 903:Core/Src/SPI_TFT_ILI9341.c ****     long t = -a2*y;                         // e(x+1/2,y-1/2) - (a^2+b^2)/4
 3523              		.loc 1 903 22 view .LVU966
 3524 009a 09F10303 		add	r3, r9, #3
 3525              	.LVL374:
 903:Core/Src/SPI_TFT_ILI9341.c ****     long t = -a2*y;                         // e(x+1/2,y-1/2) - (a^2+b^2)/4
 3526              		.loc 1 903 22 view .LVU967
 3527 009e DDE7     		b	.L169
 3528              	.LVL375:
 3529              	.L183:
 909:Core/Src/SPI_TFT_ILI9341.c ****         SPI_TFT_ILI9341_pixel(handle, xc+x, yc+y, color);
 910:Core/Src/SPI_TFT_ILI9341.c ****         if (x!=0 || y!=0)
 911:Core/Src/SPI_TFT_ILI9341.c ****             SPI_TFT_ILI9341_pixel(handle, xc-x, yc-y, color);
 3530              		.loc 1 911 13 is_stmt 1 view .LVU968
 3531 00a0 179B     		ldr	r3, [sp, #92]
 3532 00a2 019A     		ldr	r2, [sp, #4]
 3533 00a4 521B     		subs	r2, r2, r5
 3534 00a6 A9EB0401 		sub	r1, r9, r4
 3535 00aa 0098     		ldr	r0, [sp]
 3536 00ac FFF7FEFF 		bl	SPI_TFT_ILI9341_pixel
 3537              	.LVL376:
 3538 00b0 35E0     		b	.L171
ARM GAS  /var/folders/gy/djtlh36967g6qz60tx0ltrsw0000gn/T//ccFocqOw.s 			page 89


 3539              	.L184:
 912:Core/Src/SPI_TFT_ILI9341.c ****         if (x!=0 && y!=0) {
 913:Core/Src/SPI_TFT_ILI9341.c ****             SPI_TFT_ILI9341_pixel(handle, xc+x, yc-y, color);
 3540              		.loc 1 913 13 view .LVU969
 3541 00b2 179B     		ldr	r3, [sp, #92]
 3542 00b4 019A     		ldr	r2, [sp, #4]
 3543 00b6 521B     		subs	r2, r2, r5
 3544 00b8 0399     		ldr	r1, [sp, #12]
 3545 00ba DDF800A0 		ldr	r10, [sp]
 3546 00be 5046     		mov	r0, r10
 3547 00c0 FFF7FEFF 		bl	SPI_TFT_ILI9341_pixel
 3548              	.LVL377:
 914:Core/Src/SPI_TFT_ILI9341.c ****             SPI_TFT_ILI9341_pixel(handle, xc-x, yc+y, color);
 3549              		.loc 1 914 13 view .LVU970
 3550 00c4 179B     		ldr	r3, [sp, #92]
 3551 00c6 049A     		ldr	r2, [sp, #16]
 3552 00c8 A9EB0401 		sub	r1, r9, r4
 3553 00cc 5046     		mov	r0, r10
 3554 00ce FFF7FEFF 		bl	SPI_TFT_ILI9341_pixel
 3555              	.LVL378:
 3556 00d2 27E0     		b	.L172
 3557              	.L173:
 915:Core/Src/SPI_TFT_ILI9341.c ****         }
 916:Core/Src/SPI_TFT_ILI9341.c ****         if (t + b2*x <= crit1 ||            // e(x+1,y-1/2) <= 0
 917:Core/Src/SPI_TFT_ILI9341.c ****                 t + a2*y <= crit3)          // e(x+1/2,y) <= 0
 918:Core/Src/SPI_TFT_ILI9341.c ****         {
 919:Core/Src/SPI_TFT_ILI9341.c ****             x++; dxt+=d2xt; t+=dxt;
 3558              		.loc 1 919 13 view .LVU971
 3559              		.loc 1 919 14 is_stmt 0 view .LVU972
 3560 00d4 0134     		adds	r4, r4, #1
 3561              	.LVL379:
 3562              		.loc 1 919 18 is_stmt 1 view .LVU973
 3563              		.loc 1 919 21 is_stmt 0 view .LVU974
 3564 00d6 069B     		ldr	r3, [sp, #24]
 3565 00d8 1F44     		add	r7, r7, r3
 3566              	.LVL380:
 3567              		.loc 1 919 29 is_stmt 1 view .LVU975
 3568              		.loc 1 919 30 is_stmt 0 view .LVU976
 3569 00da 3E44     		add	r6, r6, r7
 3570              	.LVL381:
 3571              	.L170:
 908:Core/Src/SPI_TFT_ILI9341.c ****         SPI_TFT_ILI9341_pixel(handle, xc+x, yc+y, color);
 3572              		.loc 1 908 17 view .LVU977
 3573 00dc 029B     		ldr	r3, [sp, #8]
 3574 00de 1A46     		mov	r2, r3
 3575 00e0 EB43     		mvns	r3, r5
 3576 00e2 DB0F     		lsrs	r3, r3, #31
 3577 00e4 9442     		cmp	r4, r2
 3578 00e6 C8BF     		it	gt
 3579 00e8 0023     		movgt	r3, #0
 908:Core/Src/SPI_TFT_ILI9341.c ****         SPI_TFT_ILI9341_pixel(handle, xc+x, yc+y, color);
 3580              		.loc 1 908 11 view .LVU978
 3581 00ea 002B     		cmp	r3, #0
 3582 00ec 3CD0     		beq	.L182
 909:Core/Src/SPI_TFT_ILI9341.c ****         if (x!=0 || y!=0)
 3583              		.loc 1 909 9 is_stmt 1 view .LVU979
 3584 00ee 04EB0901 		add	r1, r4, r9
ARM GAS  /var/folders/gy/djtlh36967g6qz60tx0ltrsw0000gn/T//ccFocqOw.s 			page 90


 3585 00f2 0391     		str	r1, [sp, #12]
 3586 00f4 019B     		ldr	r3, [sp, #4]
 3587 00f6 EB18     		adds	r3, r5, r3
 3588 00f8 1A46     		mov	r2, r3
 3589 00fa 0493     		str	r3, [sp, #16]
 3590 00fc 179B     		ldr	r3, [sp, #92]
 3591 00fe 0098     		ldr	r0, [sp]
 3592 0100 FFF7FEFF 		bl	SPI_TFT_ILI9341_pixel
 3593              	.LVL382:
 910:Core/Src/SPI_TFT_ILI9341.c ****             SPI_TFT_ILI9341_pixel(handle, xc-x, yc-y, color);
 3594              		.loc 1 910 9 view .LVU980
 910:Core/Src/SPI_TFT_ILI9341.c ****             SPI_TFT_ILI9341_pixel(handle, xc-x, yc-y, color);
 3595              		.loc 1 910 14 is_stmt 0 view .LVU981
 3596 0104 14F1000B 		adds	fp, r4, #0
 3597 0108 18BF     		it	ne
 3598 010a 4FF0010B 		movne	fp, #1
 910:Core/Src/SPI_TFT_ILI9341.c ****             SPI_TFT_ILI9341_pixel(handle, xc-x, yc-y, color);
 3599              		.loc 1 910 22 view .LVU982
 3600 010e 15F1000A 		adds	r10, r5, #0
 3601 0112 18BF     		it	ne
 3602 0114 4FF0010A 		movne	r10, #1
 910:Core/Src/SPI_TFT_ILI9341.c ****             SPI_TFT_ILI9341_pixel(handle, xc-x, yc-y, color);
 3603              		.loc 1 910 12 view .LVU983
 3604 0118 54EA0503 		orrs	r3, r4, r5
 3605 011c C0D1     		bne	.L183
 3606              	.L171:
 912:Core/Src/SPI_TFT_ILI9341.c ****             SPI_TFT_ILI9341_pixel(handle, xc+x, yc-y, color);
 3607              		.loc 1 912 9 is_stmt 1 view .LVU984
 912:Core/Src/SPI_TFT_ILI9341.c ****             SPI_TFT_ILI9341_pixel(handle, xc+x, yc-y, color);
 3608              		.loc 1 912 12 is_stmt 0 view .LVU985
 3609 011e 1BEA0A0F 		tst	fp, r10
 3610 0122 C6D1     		bne	.L184
 3611              	.L172:
 916:Core/Src/SPI_TFT_ILI9341.c ****                 t + a2*y <= crit3)          // e(x+1/2,y) <= 0
 3612              		.loc 1 916 9 is_stmt 1 view .LVU986
 916:Core/Src/SPI_TFT_ILI9341.c ****                 t + a2*y <= crit3)          // e(x+1/2,y) <= 0
 3613              		.loc 1 916 15 is_stmt 0 view .LVU987
 3614 0124 08FB0463 		mla	r3, r8, r4, r6
 916:Core/Src/SPI_TFT_ILI9341.c ****                 t + a2*y <= crit3)          // e(x+1/2,y) <= 0
 3615              		.loc 1 916 12 view .LVU988
 3616 0128 059A     		ldr	r2, [sp, #20]
 3617 012a 9342     		cmp	r3, r2
 3618 012c D2DD     		ble	.L173
 917:Core/Src/SPI_TFT_ILI9341.c ****         {
 3619              		.loc 1 917 23 discriminator 1 view .LVU989
 3620 012e 079B     		ldr	r3, [sp, #28]
 3621 0130 03FB05F3 		mul	r3, r3, r5
 917:Core/Src/SPI_TFT_ILI9341.c ****         {
 3622              		.loc 1 917 19 discriminator 1 view .LVU990
 3623 0134 9A19     		adds	r2, r3, r6
 916:Core/Src/SPI_TFT_ILI9341.c ****                 t + a2*y <= crit3)          // e(x+1/2,y) <= 0
 3624              		.loc 1 916 31 discriminator 1 view .LVU991
 3625 0136 0899     		ldr	r1, [sp, #32]
 3626 0138 8A42     		cmp	r2, r1
 3627 013a CBDD     		ble	.L173
 920:Core/Src/SPI_TFT_ILI9341.c ****         }
 921:Core/Src/SPI_TFT_ILI9341.c ****         else if (t - a2*y > crit2)          // e(x+1/2,y-1) > 0
ARM GAS  /var/folders/gy/djtlh36967g6qz60tx0ltrsw0000gn/T//ccFocqOw.s 			page 91


 3628              		.loc 1 921 14 is_stmt 1 view .LVU992
 3629              		.loc 1 921 20 is_stmt 0 view .LVU993
 3630 013c F31A     		subs	r3, r6, r3
 3631              		.loc 1 921 17 view .LVU994
 3632 013e 0A9A     		ldr	r2, [sp, #40]
 3633 0140 9342     		cmp	r3, r2
 3634 0142 06DD     		ble	.L176
 922:Core/Src/SPI_TFT_ILI9341.c ****         {
 923:Core/Src/SPI_TFT_ILI9341.c ****             y--; dyt+=d2yt; t+=dyt;
 3635              		.loc 1 923 13 is_stmt 1 view .LVU995
 3636              		.loc 1 923 14 is_stmt 0 view .LVU996
 3637 0144 013D     		subs	r5, r5, #1
 3638              	.LVL383:
 3639              		.loc 1 923 18 is_stmt 1 view .LVU997
 3640              		.loc 1 923 21 is_stmt 0 view .LVU998
 3641 0146 099B     		ldr	r3, [sp, #36]
 3642 0148 0B9A     		ldr	r2, [sp, #44]
 3643 014a 1344     		add	r3, r3, r2
 3644 014c 0993     		str	r3, [sp, #36]
 3645              	.LVL384:
 3646              		.loc 1 923 29 is_stmt 1 view .LVU999
 3647              		.loc 1 923 30 is_stmt 0 view .LVU1000
 3648 014e 1E44     		add	r6, r6, r3
 3649              	.LVL385:
 3650              		.loc 1 923 30 view .LVU1001
 3651 0150 C4E7     		b	.L170
 3652              	.LVL386:
 3653              	.L176:
 924:Core/Src/SPI_TFT_ILI9341.c ****         }
 925:Core/Src/SPI_TFT_ILI9341.c ****         else {
 926:Core/Src/SPI_TFT_ILI9341.c ****             x++; dxt+=d2xt; t+=dxt;
 3654              		.loc 1 926 13 is_stmt 1 view .LVU1002
 3655              		.loc 1 926 14 is_stmt 0 view .LVU1003
 3656 0152 0134     		adds	r4, r4, #1
 3657              	.LVL387:
 3658              		.loc 1 926 18 is_stmt 1 view .LVU1004
 3659              		.loc 1 926 21 is_stmt 0 view .LVU1005
 3660 0154 069B     		ldr	r3, [sp, #24]
 3661 0156 1F44     		add	r7, r7, r3
 3662              	.LVL388:
 3663              		.loc 1 926 29 is_stmt 1 view .LVU1006
 3664              		.loc 1 926 30 is_stmt 0 view .LVU1007
